

HI-TECH Software PIC PRO Macro Assembler V9.83 build 10920 
                                                                                               Sat Mar 12 18:21:04 2016

HI-TECH Software Omniscient Code Generator (PRO mode) build 10920
     1                           	processor	16F877
     2                           	opt	pw 120
     3                           	opt	pm
     4                           	psect	config,global,class=CONFIG,delta=2
     5                           	psect	maintext,global,class=CODE,delta=2
     6                           	psect	cinit,global,class=CODE,delta=2
     7                           	psect	cstackCOMMON,global,class=COMMON,space=1,delta=1
     8                           	psect	pa_nodes,global,class=CODE,delta=2
     9                           	psect	maintext_split_1,global,class=CODE,delta=2
    10                           	dabs	1,0x7E,2
    11  000A                     	;#
    12                           
    13                           	psect	config
    14  2007  FDBA               	dw	64954	;#
    15                           
    16                           	psect	maintext
    17  00F8                     __pmaintext:	
    18  0006                     _PORTB	set	6
    19  0086                     _TRISB	set	134
    20                           
    21 ;;Data sizes: Strings 0, constant 0, data 0, bss 0, persistent 0 stack 0
    22 ;;Auto spaces:   Size  Autos    Used
    23 ;; COMMON          14      3       3
    24 ;; BANK0           80      0       0
    25 ;; BANK1           80      0       0
    26 ;; BANK3           96      0       0
    27 ;; BANK2           96      0       0
    28 ;;
    29 ;; Pointer list with targets:
    30 ;;
    31 ;; Critical Paths under _main in COMMON
    32 ;;
    33 ;;   None.
    34 ;;
    35 ;; Critical Paths under _main in BANK0
    36 ;;
    37 ;;   None.
    38 ;;
    39 ;; Critical Paths under _main in BANK1
    40 ;;
    41 ;;   None.
    42 ;;
    43 ;; Critical Paths under _main in BANK3
    44 ;;
    45 ;;   None.
    46 ;;
    47 ;; Critical Paths under _main in BANK2
    48 ;;
    49 ;;   None.
    50 ;;
    51 ;;Main: autosize = 0, tempsize = 3, incstack = 0, save=0
    52 ;;
    53 ;;
    54 ;;Call Graph Tables:
    55 ;;
    56 ;; ---------------------------------------------------------------------------------
    57 ;; (Depth) Function   	        Calls       Base Space   Used Autos Params    Refs
    58 ;; ---------------------------------------------------------------------------------
    59 ;; (0) _main                                                 3     3      0       0
    60 ;;                                              0 COMMON     3     3      0
    61 ;; ---------------------------------------------------------------------------------
    62 ;; Estimated maximum stack depth 0
    63 ;; ---------------------------------------------------------------------------------
    64 ;; Call Graph Graphs:
    65 ;; _main (ROOT)
    66 ;;
    67 ;; Address spaces:
    68 ;;Name               Size   Autos  Total    Cost      Usage
    69 ;;BITCOMMON            E      0       0       0        0.0%
    70 ;;EEDATA             100      0       0       0        0.0%
    71 ;;NULL                 0      0       0       0        0.0%
    72 ;;CODE                 0      0       0       0        0.0%
    73 ;;COMMON               E      3       3       1       21.4%
    74 ;;BITSFR0              0      0       0       1        0.0%
    75 ;;SFR0                 0      0       0       1        0.0%
    76 ;;BITSFR1              0      0       0       2        0.0%
    77 ;;SFR1                 0      0       0       2        0.0%
    78 ;;STACK                0      0       0       2        0.0%
    79 ;;ABS                  0      0       0       3        0.0%
    80 ;;BITBANK0            50      0       0       4        0.0%
    81 ;;BITSFR3              0      0       0       4        0.0%
    82 ;;SFR3                 0      0       0       4        0.0%
    83 ;;BANK0               50      0       0       5        0.0%
    84 ;;BITSFR2              0      0       0       5        0.0%
    85 ;;SFR2                 0      0       0       5        0.0%
    86 ;;BITBANK1            50      0       0       6        0.0%
    87 ;;BANK1               50      0       0       7        0.0%
    88 ;;BITBANK3            60      0       0       8        0.0%
    89 ;;BANK3               60      0       0       9        0.0%
    90 ;;BITBANK2            60      0       0      10        0.0%
    91 ;;BANK2               60      0       0      11        0.0%
    92 ;;DATA                 0      0       0      12        0.0%
    93 ;; *************** function _main *****************
    94 ;; Defined at:
    95 ;;		line 29 in file "my t4 c.c"
    96 ;; Parameters:    Size  Location     Type
    97 ;;		None
    98 ;; Auto vars:     Size  Location     Type
    99 ;;		None
   100 ;; Return value:  Size  Location     Type
   101 ;;		None               void
   102 ;; Registers used:
   103 ;;		wreg, status,2
   104 ;; Tracked objects:
   105 ;;		On entry : 17F/0
   106 ;;		On exit  : 0/0
   107 ;;		Unchanged: 0/0
   108 ;; Data sizes:     COMMON   BANK0   BANK1   BANK3   BANK2
   109 ;;      Params:         0       0       0       0       0
   110 ;;      Locals:         0       0       0       0       0
   111 ;;      Temps:          3       0       0       0       0
   112 ;;      Totals:         3       0       0       0       0
   113 ;;Total ram usage:        3 bytes
   114 ;; This function calls:
   115 ;;		Nothing
   116 ;; This function is called by:
   117 ;;		Startup code after reset
   118 ;; This function uses a non-reentrant model
   119 ;;
   120  00F8                     _main:	
   121                           
   122                           ;my t4 c.c: 31: TRISB = 0b00000000;
   123                           
   124                           ; Regs used in _main: [wreg+status,2]
   125  00F8  1683               	bsf	3,5	;RP0=1, select bank1
   126  00F9  0186               	clrf	6	;volatile
   127                           
   128                           ;my t4 c.c: 32: TRISB = 0b00000000;
   129  00FA  0186               	clrf	6	;volatile
   130  00FB                     l1655:	
   131                           
   132                           ;my t4 c.c: 36: PORTB = 0b11111111;
   133  00FB  30FF               	movlw	255
   134  00FC  1283               	bcf	3,5	;RP0=0, select bank0
   135  00FD  1303               	bcf	3,6	;RP1=0, select bank0
   136  00FE  0086               	movwf	6	;volatile
   137                           
   138                           ;my t4 c.c: 37: _delay((unsigned long)((1000)*(8000000/4000.0)));
   139  00FF  300B               	movlw	11
   140  0100  00F2               	movwf	??_main+2
   141  0101  3026               	movlw	38
   142  0102  00F1               	movwf	??_main+1
   143  0103  3066               	movlw	102
   144  0104  00F0               	movwf	??_main
   145  0105                     u17:	
   146  0105  0BF0               	decfsz	??_main,f
   147  0106  2905               	goto	u17
   148  0107  0BF1               	decfsz	??_main+1,f
   149  0108  2905               	goto	u17
   150  0109  0BF2               	decfsz	??_main+2,f
   151  010A  2905               	goto	u17
   152  010B  290C               	nop2
   153                           
   154                           ;my t4 c.c: 38: PORTB = 0b00000000;
   155  010C  1283               	bcf	3,5	;RP0=0, select bank0
   156  010D  1303               	bcf	3,6	;RP1=0, select bank0
   157  010E  0186               	clrf	6	;volatile
   158                           
   159                           ;my t4 c.c: 39: _delay((unsigned long)((1000)*(8000000/4000.0)));
   160  010F  300B               	movlw	11
   161  0110  00F2               	movwf	??_main+2
   162  0111  3026               	movlw	38
   163  0112  00F1               	movwf	??_main+1
   164  0113  3066               	movlw	102
   165  0114  00F0               	movwf	??_main
   166  0115                     u27:	
   167  0115  0BF0               	decfsz	??_main,f
   168  0116  2915               	goto	u27
   169  0117  0BF1               	decfsz	??_main+1,f
   170  0118  2915               	goto	u27
   171  0119  0BF2               	decfsz	??_main+2,f
   172  011A  2915               	goto	u27
   173  011B  291C               	nop2
   174                           
   175                           ;my t4 c.c: 40: PORTB = 0b10000000;
   176  011C  3080               	movlw	128
   177  011D  1283               	bcf	3,5	;RP0=0, select bank0
   178  011E  1303               	bcf	3,6	;RP1=0, select bank0
   179  011F  0086               	movwf	6	;volatile
   180                           
   181                           ;my t4 c.c: 41: _delay((unsigned long)((1000)*(8000000/4000.0)));
   182  0120  300B               	movlw	11
   183  0121  00F2               	movwf	??_main+2
   184  0122  3026               	movlw	38
   185  0123  00F1               	movwf	??_main+1
   186  0124  3066               	movlw	102
   187  0125  00F0               	movwf	??_main
   188  0126                     u37:	
   189  0126  0BF0               	decfsz	??_main,f
   190  0127  2926               	goto	u37
   191  0128  0BF1               	decfsz	??_main+1,f
   192  0129  2926               	goto	u37
   193  012A  0BF2               	decfsz	??_main+2,f
   194  012B  2926               	goto	u37
   195  012C  292D               	nop2
   196                           
   197                           ;my t4 c.c: 42: PORTB = 0b01000000;
   198  012D  3040               	movlw	64
   199  012E  1283               	bcf	3,5	;RP0=0, select bank0
   200  012F  1303               	bcf	3,6	;RP1=0, select bank0
   201  0130  0086               	movwf	6	;volatile
   202                           
   203                           ;my t4 c.c: 43: _delay((unsigned long)((1000)*(8000000/4000.0)));
   204  0131  300B               	movlw	11
   205  0132  00F2               	movwf	??_main+2
   206  0133  3026               	movlw	38
   207  0134  00F1               	movwf	??_main+1
   208  0135  3066               	movlw	102
   209  0136  00F0               	movwf	??_main
   210  0137                     u47:	
   211  0137  0BF0               	decfsz	??_main,f
   212  0138  2937               	goto	u47
   213  0139  0BF1               	decfsz	??_main+1,f
   214  013A  2937               	goto	u47
   215  013B  0BF2               	decfsz	??_main+2,f
   216  013C  2937               	goto	u47
   217  013D  293E               	nop2
   218                           
   219                           ;my t4 c.c: 44: PORTB = 0b00100000;
   220  013E  3020               	movlw	32
   221  013F  1283               	bcf	3,5	;RP0=0, select bank0
   222  0140  1303               	bcf	3,6	;RP1=0, select bank0
   223  0141  0086               	movwf	6	;volatile
   224                           
   225                           ;my t4 c.c: 45: _delay((unsigned long)((1000)*(8000000/4000.0)));
   226  0142  300B               	movlw	11
   227  0143  00F2               	movwf	??_main+2
   228  0144  3026               	movlw	38
   229  0145  00F1               	movwf	??_main+1
   230  0146  3066               	movlw	102
   231  0147  00F0               	movwf	??_main
   232  0148                     u57:	
   233  0148  0BF0               	decfsz	??_main,f
   234  0149  2948               	goto	u57
   235  014A  0BF1               	decfsz	??_main+1,f
   236  014B  2948               	goto	u57
   237  014C  0BF2               	decfsz	??_main+2,f
   238  014D  2948               	goto	u57
   239  014E  294F               	nop2
   240                           
   241                           ;my t4 c.c: 46: PORTB = 0b00010000;
   242  014F  3010               	movlw	16
   243  0150  1283               	bcf	3,5	;RP0=0, select bank0
   244  0151  1303               	bcf	3,6	;RP1=0, select bank0
   245  0152  0086               	movwf	6	;volatile
   246                           
   247                           ;my t4 c.c: 47: _delay((unsigned long)((1000)*(8000000/4000.0)));
   248  0153  300B               	movlw	11
   249  0154  00F2               	movwf	??_main+2
   250  0155  3026               	movlw	38
   251  0156  00F1               	movwf	??_main+1
   252  0157  3066               	movlw	102
   253  0158  00F0               	movwf	??_main
   254  0159                     u67:	
   255  0159  0BF0               	decfsz	??_main,f
   256  015A  2959               	goto	u67
   257  015B  0BF1               	decfsz	??_main+1,f
   258  015C  2959               	goto	u67
   259  015D  0BF2               	decfsz	??_main+2,f
   260  015E  2959               	goto	u67
   261  015F  2960               	nop2
   262                           
   263                           ;my t4 c.c: 48: PORTB = 0b00001000;
   264  0160  3008               	movlw	8
   265  0161  1283               	bcf	3,5	;RP0=0, select bank0
   266  0162  1303               	bcf	3,6	;RP1=0, select bank0
   267  0163  0086               	movwf	6	;volatile
   268                           
   269                           ;my t4 c.c: 49: _delay((unsigned long)((1000)*(8000000/4000.0)));
   270  0164  300B               	movlw	11
   271  0165  00F2               	movwf	??_main+2
   272  0166  3026               	movlw	38
   273  0167  00F1               	movwf	??_main+1
   274  0168  3066               	movlw	102
   275  0169  00F0               	movwf	??_main
   276  016A                     u77:	
   277  016A  0BF0               	decfsz	??_main,f
   278  016B  296A               	goto	u77
   279  016C  0BF1               	decfsz	??_main+1,f
   280  016D  296A               	goto	u77
   281  016E  0BF2               	decfsz	??_main+2,f
   282  016F  296A               	goto	u77
   283  0170  2971               	nop2
   284                           
   285                           ;my t4 c.c: 50: PORTB = 0b00000100;
   286  0171  3004               	movlw	4
   287  0172  1283               	bcf	3,5	;RP0=0, select bank0
   288  0173  1303               	bcf	3,6	;RP1=0, select bank0
   289  0174  0086               	movwf	6	;volatile
   290                           
   291                           ;my t4 c.c: 51: _delay((unsigned long)((1000)*(8000000/4000.0)));
   292  0175  300B               	movlw	11
   293  0176  00F2               	movwf	??_main+2
   294  0177  3026               	movlw	38
   295  0178  00F1               	movwf	??_main+1
   296  0179  3066               	movlw	102
   297  017A  00F0               	movwf	??_main
   298  017B                     u87:	
   299  017B  0BF0               	decfsz	??_main,f
   300  017C  297B               	goto	u87
   301  017D  0BF1               	decfsz	??_main+1,f
   302  017E  297B               	goto	u87
   303  017F  0BF2               	decfsz	??_main+2,f
   304  0180  297B               	goto	u87
   305  0181  2982               	nop2
   306                           
   307                           ;my t4 c.c: 52: PORTB = 0b00000010;
   308  0182  3002               	movlw	2
   309  0183  1283               	bcf	3,5	;RP0=0, select bank0
   310  0184  1303               	bcf	3,6	;RP1=0, select bank0
   311  0185  0086               	movwf	6	;volatile
   312                           
   313                           ;my t4 c.c: 53: _delay((unsigned long)((1000)*(8000000/4000.0)));
   314  0186  300B               	movlw	11
   315  0187  00F2               	movwf	??_main+2
   316  0188  3026               	movlw	38
   317  0189  00F1               	movwf	??_main+1
   318  018A  3066               	movlw	102
   319  018B  00F0               	movwf	??_main
   320  018C                     u97:	
   321  018C  0BF0               	decfsz	??_main,f
   322  018D  298C               	goto	u97
   323  018E  0BF1               	decfsz	??_main+1,f
   324  018F  298C               	goto	u97
   325  0190  0BF2               	decfsz	??_main+2,f
   326  0191  298C               	goto	u97
   327  0192  2993               	nop2
   328                           
   329                           ;my t4 c.c: 54: PORTB = 0b00000001;
   330  0193  3001               	movlw	1
   331  0194  1283               	bcf	3,5	;RP0=0, select bank0
   332  0195  1303               	bcf	3,6	;RP1=0, select bank0
   333  0196  0086               	movwf	6	;volatile
   334                           
   335                           ;my t4 c.c: 55: _delay((unsigned long)((1000)*(8000000/4000.0)));
   336  0197  300B               	movlw	11
   337  0198  00F2               	movwf	??_main+2
   338  0199  3026               	movlw	38
   339  019A  00F1               	movwf	??_main+1
   340  019B  3066               	movlw	102
   341  019C  00F0               	movwf	??_main
   342  019D                     u107:	
   343  019D  0BF0               	decfsz	??_main,f
   344  019E  299D               	goto	u107
   345  019F  0BF1               	decfsz	??_main+1,f
   346  01A0  299D               	goto	u107
   347  01A1  0BF2               	decfsz	??_main+2,f
   348  01A2  299D               	goto	u107
   349  01A3  29A4               	nop2
   350                           
   351                           ;my t4 c.c: 56: PORTB = 0b00000010;
   352  01A4  3002               	movlw	2
   353  01A5  1283               	bcf	3,5	;RP0=0, select bank0
   354  01A6  1303               	bcf	3,6	;RP1=0, select bank0
   355  01A7  0086               	movwf	6	;volatile
   356                           
   357                           ;my t4 c.c: 57: _delay((unsigned long)((1000)*(8000000/4000.0)));
   358  01A8  300B               	movlw	11
   359  01A9  00F2               	movwf	??_main+2
   360  01AA  3026               	movlw	38
   361  01AB  00F1               	movwf	??_main+1
   362  01AC  3066               	movlw	102
   363  01AD  00F0               	movwf	??_main
   364  01AE                     u117:	
   365  01AE  0BF0               	decfsz	??_main,f
   366  01AF  29AE               	goto	u117
   367  01B0  0BF1               	decfsz	??_main+1,f
   368  01B1  29AE               	goto	u117
   369  01B2  0BF2               	decfsz	??_main+2,f
   370  01B3  29AE               	goto	u117
   371  01B4  29B5               	nop2
   372                           
   373                           ;my t4 c.c: 58: PORTB = 0b00000100;
   374  01B5  3004               	movlw	4
   375  01B6  1283               	bcf	3,5	;RP0=0, select bank0
   376  01B7  1303               	bcf	3,6	;RP1=0, select bank0
   377  01B8  0086               	movwf	6	;volatile
   378                           
   379                           ;my t4 c.c: 59: _delay((unsigned long)((1000)*(8000000/4000.0)));
   380  01B9  300B               	movlw	11
   381  01BA  00F2               	movwf	??_main+2
   382  01BB  3026               	movlw	38
   383  01BC  00F1               	movwf	??_main+1
   384  01BD  3066               	movlw	102
   385  01BE  00F0               	movwf	??_main
   386  01BF                     u127:	
   387  01BF  0BF0               	decfsz	??_main,f
   388  01C0  29BF               	goto	u127
   389  01C1  0BF1               	decfsz	??_main+1,f
   390  01C2  29BF               	goto	u127
   391  01C3  0BF2               	decfsz	??_main+2,f
   392  01C4  29BF               	goto	u127
   393  01C5  29C6               	nop2
   394                           
   395                           ;my t4 c.c: 60: PORTB = 0b00001000;
   396  01C6  3008               	movlw	8
   397  01C7  1283               	bcf	3,5	;RP0=0, select bank0
   398  01C8  1303               	bcf	3,6	;RP1=0, select bank0
   399  01C9  0086               	movwf	6	;volatile
   400                           
   401                           ;my t4 c.c: 61: _delay((unsigned long)((1000)*(8000000/4000.0)));
   402  01CA  300B               	movlw	11
   403  01CB  00F2               	movwf	??_main+2
   404  01CC  3026               	movlw	38
   405  01CD  00F1               	movwf	??_main+1
   406  01CE  3066               	movlw	102
   407  01CF  00F0               	movwf	??_main
   408  01D0                     u137:	
   409  01D0  0BF0               	decfsz	??_main,f
   410  01D1  29D0               	goto	u137
   411  01D2  0BF1               	decfsz	??_main+1,f
   412  01D3  29D0               	goto	u137
   413  01D4  0BF2               	decfsz	??_main+2,f
   414  01D5  29D0               	goto	u137
   415  01D6  29D7               	nop2
   416                           
   417                           ;my t4 c.c: 62: PORTB = 0b00010000;
   418  01D7  3010               	movlw	16
   419  01D8  1283               	bcf	3,5	;RP0=0, select bank0
   420  01D9  1303               	bcf	3,6	;RP1=0, select bank0
   421  01DA  0086               	movwf	6	;volatile
   422                           
   423                           ;my t4 c.c: 63: _delay((unsigned long)((1000)*(8000000/4000.0)));
   424  01DB  300B               	movlw	11
   425  01DC  00F2               	movwf	??_main+2
   426  01DD  3026               	movlw	38
   427  01DE  00F1               	movwf	??_main+1
   428  01DF  3066               	movlw	102
   429  01E0  00F0               	movwf	??_main
   430  01E1                     u147:	
   431  01E1  0BF0               	decfsz	??_main,f
   432  01E2  29E1               	goto	u147
   433  01E3  0BF1               	decfsz	??_main+1,f
   434  01E4  29E1               	goto	u147
   435  01E5  0BF2               	decfsz	??_main+2,f
   436  01E6  29E1               	goto	u147
   437  01E7  29E8               	nop2
   438                           
   439                           ;my t4 c.c: 64: PORTB = 0b00100000;
   440  01E8  3020               	movlw	32
   441  01E9  1283               	bcf	3,5	;RP0=0, select bank0
   442  01EA  1303               	bcf	3,6	;RP1=0, select bank0
   443  01EB  0086               	movwf	6	;volatile
   444                           
   445                           ;my t4 c.c: 65: _delay((unsigned long)((1000)*(8000000/4000.0)));
   446  01EC  300B               	movlw	11
   447  01ED  00F2               	movwf	??_main+2
   448  01EE  3026               	movlw	38
   449  01EF  00F1               	movwf	??_main+1
   450  01F0  3066               	movlw	102
   451  01F1  00F0               	movwf	??_main
   452  01F2                     u157:	
   453  01F2  0BF0               	decfsz	??_main,f
   454  01F3  29F2               	goto	u157
   455  01F4  0BF1               	decfsz	??_main+1,f
   456  01F5  29F2               	goto	u157
   457  01F6  0BF2               	decfsz	??_main+2,f
   458  01F7  29F2               	goto	u157
   459  01F8  29F9               	nop2
   460                           
   461                           ;my t4 c.c: 66: PORTB = 0b01000000;
   462  01F9  3040               	movlw	64
   463  01FA  1283               	bcf	3,5	;RP0=0, select bank0
   464  01FB  1303               	bcf	3,6	;RP1=0, select bank0
   465  01FC  0086               	movwf	6	;volatile
   466                           
   467                           ;my t4 c.c: 67: _delay((unsigned long)((1000)*(8000000/4000.0)));
   468  01FD  300B               	movlw	11
   469  01FE  00F2               	movwf	??_main+2
   470  01FF  3026               	movlw	38
   471  0200  00F1               	movwf	??_main+1
   472  0201  3066               	movlw	102
   473  0202  00F0               	movwf	??_main
   474  0203                     u167:	
   475  0203  0BF0               	decfsz	??_main,f
   476  0204  2A03               	goto	u167
   477  0205  0BF1               	decfsz	??_main+1,f
   478  0206  2A03               	goto	u167
   479  0207  0BF2               	decfsz	??_main+2,f
   480  0208  2A03               	goto	u167
   481  0209  2A0A               	nop2
   482                           
   483                           ;my t4 c.c: 68: PORTB = 0b10000000;
   484  020A  3080               	movlw	128
   485  020B  1283               	bcf	3,5	;RP0=0, select bank0
   486  020C  1303               	bcf	3,6	;RP1=0, select bank0
   487  020D  0086               	movwf	6	;volatile
   488                           
   489                           ;my t4 c.c: 69: _delay((unsigned long)((1000)*(8000000/4000.0)));
   490  020E  300B               	movlw	11
   491  020F  00F2               	movwf	??_main+2
   492  0210  3026               	movlw	38
   493  0211  00F1               	movwf	??_main+1
   494  0212  3066               	movlw	102
   495  0213  00F0               	movwf	??_main
   496  0214                     u177:	
   497  0214  0BF0               	decfsz	??_main,f
   498  0215  2A14               	goto	u177
   499  0216  0BF1               	decfsz	??_main+1,f
   500  0217  2A14               	goto	u177
   501  0218  0BF2               	decfsz	??_main+2,f
   502  0219  2A14               	goto	u177
   503  021A  2A1B               	nop2
   504                           
   505                           ;my t4 c.c: 70: PORTB = 0b00000000;
   506  021B  1283               	bcf	3,5	;RP0=0, select bank0
   507  021C  1303               	bcf	3,6	;RP1=0, select bank0
   508  021D  0186               	clrf	6	;volatile
   509                           
   510                           ;my t4 c.c: 71: _delay((unsigned long)((1000)*(8000000/4000.0)));
   511  021E  300B               	movlw	11
   512  021F  00F2               	movwf	??_main+2
   513  0220  3026               	movlw	38
   514  0221  00F1               	movwf	??_main+1
   515  0222  3066               	movlw	102
   516  0223  00F0               	movwf	??_main
   517  0224                     u187:	
   518  0224  0BF0               	decfsz	??_main,f
   519  0225  2A24               	goto	u187
   520  0226  0BF1               	decfsz	??_main+1,f
   521  0227  2A24               	goto	u187
   522  0228  0BF2               	decfsz	??_main+2,f
   523  0229  2A24               	goto	u187
   524  022A  2A2B               	nop2
   525                           
   526                           ;my t4 c.c: 72: PORTB = 0b11111111;
   527  022B  30FF               	movlw	255
   528  022C  1283               	bcf	3,5	;RP0=0, select bank0
   529  022D  1303               	bcf	3,6	;RP1=0, select bank0
   530  022E  0086               	movwf	6	;volatile
   531                           
   532                           ;my t4 c.c: 73: _delay((unsigned long)((1000)*(8000000/4000.0)));
   533  022F  300B               	movlw	11
   534  0230  00F2               	movwf	??_main+2
   535  0231  3026               	movlw	38
   536  0232  00F1               	movwf	??_main+1
   537  0233  3066               	movlw	102
   538  0234  00F0               	movwf	??_main
   539  0235                     u197:	
   540  0235  0BF0               	decfsz	??_main,f
   541  0236  2A35               	goto	u197
   542  0237  0BF1               	decfsz	??_main+1,f
   543  0238  2A35               	goto	u197
   544  0239  0BF2               	decfsz	??_main+2,f
   545  023A  2A35               	goto	u197
   546  023B  2A3C               	nop2
   547                           
   548                           ;my t4 c.c: 74: PORTB = 0b10000000;
   549  023C  3080               	movlw	128
   550  023D  1283               	bcf	3,5	;RP0=0, select bank0
   551  023E  1303               	bcf	3,6	;RP1=0, select bank0
   552  023F  0086               	movwf	6	;volatile
   553                           
   554                           ;my t4 c.c: 75: _delay((unsigned long)((1000)*(8000000/4000.0)));
   555  0240  300B               	movlw	11
   556  0241  00F2               	movwf	??_main+2
   557  0242  3026               	movlw	38
   558  0243  00F1               	movwf	??_main+1
   559  0244  3066               	movlw	102
   560  0245  00F0               	movwf	??_main
   561  0246                     u207:	
   562  0246  0BF0               	decfsz	??_main,f
   563  0247  2A46               	goto	u207
   564  0248  0BF1               	decfsz	??_main+1,f
   565  0249  2A46               	goto	u207
   566  024A  0BF2               	decfsz	??_main+2,f
   567  024B  2A46               	goto	u207
   568  024C  2A4D               	nop2
   569                           
   570                           ;my t4 c.c: 76: PORTB = 0b11000000;
   571  024D  30C0               	movlw	192
   572  024E  1283               	bcf	3,5	;RP0=0, select bank0
   573  024F  1303               	bcf	3,6	;RP1=0, select bank0
   574  0250  0086               	movwf	6	;volatile
   575                           
   576                           ;my t4 c.c: 77: _delay((unsigned long)((1000)*(8000000/4000.0)));
   577  0251  300B               	movlw	11
   578  0252  00F2               	movwf	??_main+2
   579  0253  3026               	movlw	38
   580  0254  00F1               	movwf	??_main+1
   581  0255  3066               	movlw	102
   582  0256  00F0               	movwf	??_main
   583  0257                     u217:	
   584  0257  0BF0               	decfsz	??_main,f
   585  0258  2A57               	goto	u217
   586  0259  0BF1               	decfsz	??_main+1,f
   587  025A  2A57               	goto	u217
   588  025B  0BF2               	decfsz	??_main+2,f
   589  025C  2A57               	goto	u217
   590  025D  2A5E               	nop2
   591                           
   592                           ;my t4 c.c: 78: PORTB = 0b11100000;
   593  025E  30E0               	movlw	224
   594  025F  1283               	bcf	3,5	;RP0=0, select bank0
   595  0260  1303               	bcf	3,6	;RP1=0, select bank0
   596  0261  0086               	movwf	6	;volatile
   597                           
   598                           ;my t4 c.c: 79: _delay((unsigned long)((1000)*(8000000/4000.0)));
   599  0262  300B               	movlw	11
   600  0263  00F2               	movwf	??_main+2
   601  0264  3026               	movlw	38
   602  0265  00F1               	movwf	??_main+1
   603  0266  3066               	movlw	102
   604  0267  00F0               	movwf	??_main
   605  0268                     u227:	
   606  0268  0BF0               	decfsz	??_main,f
   607  0269  2A68               	goto	u227
   608  026A  0BF1               	decfsz	??_main+1,f
   609  026B  2A68               	goto	u227
   610  026C  0BF2               	decfsz	??_main+2,f
   611  026D  2A68               	goto	u227
   612  026E  2A6F               	nop2
   613                           
   614                           ;my t4 c.c: 80: PORTB = 0b11110000;
   615  026F  30F0               	movlw	240
   616  0270  1283               	bcf	3,5	;RP0=0, select bank0
   617  0271  1303               	bcf	3,6	;RP1=0, select bank0
   618  0272  0086               	movwf	6	;volatile
   619                           
   620                           ;my t4 c.c: 81: _delay((unsigned long)((1000)*(8000000/4000.0)));
   621  0273  300B               	movlw	11
   622  0274  00F2               	movwf	??_main+2
   623  0275  3026               	movlw	38
   624  0276  00F1               	movwf	??_main+1
   625  0277  3066               	movlw	102
   626  0278  00F0               	movwf	??_main
   627  0279                     u237:	
   628  0279  0BF0               	decfsz	??_main,f
   629  027A  2A79               	goto	u237
   630  027B  0BF1               	decfsz	??_main+1,f
   631  027C  2A79               	goto	u237
   632  027D  0BF2               	decfsz	??_main+2,f
   633  027E  2A79               	goto	u237
   634  027F  2A80               	nop2
   635                           
   636                           ;my t4 c.c: 82: PORTB = 0b11110000;
   637  0280  30F0               	movlw	240
   638  0281  1283               	bcf	3,5	;RP0=0, select bank0
   639  0282  1303               	bcf	3,6	;RP1=0, select bank0
   640  0283  0086               	movwf	6	;volatile
   641                           
   642                           ;my t4 c.c: 83: _delay((unsigned long)((1000)*(8000000/4000.0)));
   643  0284  300B               	movlw	11
   644  0285  00F2               	movwf	??_main+2
   645  0286  3026               	movlw	38
   646  0287  00F1               	movwf	??_main+1
   647  0288  3066               	movlw	102
   648  0289  00F0               	movwf	??_main
   649  028A                     u247:	
   650  028A  0BF0               	decfsz	??_main,f
   651  028B  2A8A               	goto	u247
   652  028C  0BF1               	decfsz	??_main+1,f
   653  028D  2A8A               	goto	u247
   654  028E  0BF2               	decfsz	??_main+2,f
   655  028F  2A8A               	goto	u247
   656  0290  2A91               	nop2
   657                           
   658                           ;my t4 c.c: 84: PORTB = 0b11111100;
   659  0291  30FC               	movlw	252
   660  0292  1283               	bcf	3,5	;RP0=0, select bank0
   661  0293  1303               	bcf	3,6	;RP1=0, select bank0
   662  0294  0086               	movwf	6	;volatile
   663                           
   664                           ;my t4 c.c: 85: _delay((unsigned long)((1000)*(8000000/4000.0)));
   665  0295  300B               	movlw	11
   666  0296  00F2               	movwf	??_main+2
   667  0297  3026               	movlw	38
   668  0298  00F1               	movwf	??_main+1
   669  0299  3066               	movlw	102
   670  029A  00F0               	movwf	??_main
   671  029B                     u257:	
   672  029B  0BF0               	decfsz	??_main,f
   673  029C  2A9B               	goto	u257
   674  029D  0BF1               	decfsz	??_main+1,f
   675  029E  2A9B               	goto	u257
   676  029F  0BF2               	decfsz	??_main+2,f
   677  02A0  2A9B               	goto	u257
   678  02A1  2AA2               	nop2
   679                           
   680                           ;my t4 c.c: 86: PORTB = 0b11111110;
   681  02A2  30FE               	movlw	254
   682  02A3  1283               	bcf	3,5	;RP0=0, select bank0
   683  02A4  1303               	bcf	3,6	;RP1=0, select bank0
   684  02A5  0086               	movwf	6	;volatile
   685                           
   686                           ;my t4 c.c: 87: _delay((unsigned long)((1000)*(8000000/4000.0)));
   687  02A6  300B               	movlw	11
   688  02A7  00F2               	movwf	??_main+2
   689  02A8  3026               	movlw	38
   690  02A9  00F1               	movwf	??_main+1
   691  02AA  3066               	movlw	102
   692  02AB  00F0               	movwf	??_main
   693  02AC                     u267:	
   694  02AC  0BF0               	decfsz	??_main,f
   695  02AD  2AAC               	goto	u267
   696  02AE  0BF1               	decfsz	??_main+1,f
   697  02AF  2AAC               	goto	u267
   698  02B0  0BF2               	decfsz	??_main+2,f
   699  02B1  2AAC               	goto	u267
   700  02B2  2AB3               	nop2
   701                           
   702                           ;my t4 c.c: 88: PORTB = 0b11111111;
   703  02B3  30FF               	movlw	255
   704  02B4  1283               	bcf	3,5	;RP0=0, select bank0
   705  02B5  1303               	bcf	3,6	;RP1=0, select bank0
   706  02B6  0086               	movwf	6	;volatile
   707                           
   708                           ;my t4 c.c: 89: _delay((unsigned long)((1000)*(8000000/4000.0)));
   709  02B7  300B               	movlw	11
   710  02B8  00F2               	movwf	??_main+2
   711  02B9  3026               	movlw	38
   712  02BA  00F1               	movwf	??_main+1
   713  02BB  3066               	movlw	102
   714  02BC  00F0               	movwf	??_main
   715  02BD                     u277:	
   716  02BD  0BF0               	decfsz	??_main,f
   717  02BE  2ABD               	goto	u277
   718  02BF  0BF1               	decfsz	??_main+1,f
   719  02C0  2ABD               	goto	u277
   720  02C1  0BF2               	decfsz	??_main+2,f
   721  02C2  2ABD               	goto	u277
   722  02C3  2AC4               	nop2
   723                           
   724                           ;my t4 c.c: 90: PORTB = 0b10000000;
   725  02C4  3080               	movlw	128
   726  02C5  1283               	bcf	3,5	;RP0=0, select bank0
   727  02C6  1303               	bcf	3,6	;RP1=0, select bank0
   728  02C7  0086               	movwf	6	;volatile
   729                           
   730                           ;my t4 c.c: 91: _delay((unsigned long)((1000)*(8000000/4000.0)));
   731  02C8  300B               	movlw	11
   732  02C9  00F2               	movwf	??_main+2
   733  02CA  3026               	movlw	38
   734  02CB  00F1               	movwf	??_main+1
   735  02CC  3066               	movlw	102
   736  02CD  00F0               	movwf	??_main
   737  02CE                     u287:	
   738  02CE  0BF0               	decfsz	??_main,f
   739  02CF  2ACE               	goto	u287
   740  02D0  0BF1               	decfsz	??_main+1,f
   741  02D1  2ACE               	goto	u287
   742  02D2  0BF2               	decfsz	??_main+2,f
   743  02D3  2ACE               	goto	u287
   744  02D4  2AD5               	nop2
   745                           
   746                           ;my t4 c.c: 92: PORTB = 0b11000000;
   747  02D5  30C0               	movlw	192
   748  02D6  1283               	bcf	3,5	;RP0=0, select bank0
   749  02D7  1303               	bcf	3,6	;RP1=0, select bank0
   750  02D8  0086               	movwf	6	;volatile
   751                           
   752                           ;my t4 c.c: 93: _delay((unsigned long)((1000)*(8000000/4000.0)));
   753  02D9  300B               	movlw	11
   754  02DA  00F2               	movwf	??_main+2
   755  02DB  3026               	movlw	38
   756  02DC  00F1               	movwf	??_main+1
   757  02DD  3066               	movlw	102
   758  02DE  00F0               	movwf	??_main
   759  02DF                     u297:	
   760  02DF  0BF0               	decfsz	??_main,f
   761  02E0  2ADF               	goto	u297
   762  02E1  0BF1               	decfsz	??_main+1,f
   763  02E2  2ADF               	goto	u297
   764  02E3  0BF2               	decfsz	??_main+2,f
   765  02E4  2ADF               	goto	u297
   766  02E5  2AE6               	nop2
   767                           
   768                           ;my t4 c.c: 94: PORTB = 0b11100000;
   769  02E6  30E0               	movlw	224
   770  02E7  1283               	bcf	3,5	;RP0=0, select bank0
   771  02E8  1303               	bcf	3,6	;RP1=0, select bank0
   772  02E9  0086               	movwf	6	;volatile
   773                           
   774                           ;my t4 c.c: 95: _delay((unsigned long)((1000)*(8000000/4000.0)));
   775  02EA  300B               	movlw	11
   776  02EB  00F2               	movwf	??_main+2
   777  02EC  3026               	movlw	38
   778  02ED  00F1               	movwf	??_main+1
   779  02EE  3066               	movlw	102
   780  02EF  00F0               	movwf	??_main
   781  02F0                     u307:	
   782  02F0  0BF0               	decfsz	??_main,f
   783  02F1  2AF0               	goto	u307
   784  02F2  0BF1               	decfsz	??_main+1,f
   785  02F3  2AF0               	goto	u307
   786  02F4  0BF2               	decfsz	??_main+2,f
   787  02F5  2AF0               	goto	u307
   788  02F6  2AF7               	nop2
   789                           
   790                           ;my t4 c.c: 96: PORTB = 0b11110000;
   791  02F7  30F0               	movlw	240
   792  02F8  1283               	bcf	3,5	;RP0=0, select bank0
   793  02F9  1303               	bcf	3,6	;RP1=0, select bank0
   794  02FA  0086               	movwf	6	;volatile
   795                           
   796                           ;my t4 c.c: 97: _delay((unsigned long)((1000)*(8000000/4000.0)));
   797  02FB  300B               	movlw	11
   798  02FC  00F2               	movwf	??_main+2
   799  02FD  3026               	movlw	38
   800  02FE  00F1               	movwf	??_main+1
   801  02FF  3066               	movlw	102
   802  0300  00F0               	movwf	??_main
   803  0301                     u317:	
   804  0301  0BF0               	decfsz	??_main,f
   805  0302  2B01               	goto	u317
   806  0303  0BF1               	decfsz	??_main+1,f
   807  0304  2B01               	goto	u317
   808  0305  0BF2               	decfsz	??_main+2,f
   809  0306  2B01               	goto	u317
   810  0307  2B08               	nop2
   811                           
   812                           ;my t4 c.c: 98: PORTB = 0b11110000;
   813  0308  30F0               	movlw	240
   814  0309  1283               	bcf	3,5	;RP0=0, select bank0
   815  030A  1303               	bcf	3,6	;RP1=0, select bank0
   816  030B  0086               	movwf	6	;volatile
   817                           
   818                           ;my t4 c.c: 99: _delay((unsigned long)((1000)*(8000000/4000.0)));
   819  030C  300B               	movlw	11
   820  030D  00F2               	movwf	??_main+2
   821  030E  3026               	movlw	38
   822  030F  00F1               	movwf	??_main+1
   823  0310  3066               	movlw	102
   824  0311  00F0               	movwf	??_main
   825  0312                     u327:	
   826  0312  0BF0               	decfsz	??_main,f
   827  0313  2B12               	goto	u327
   828  0314  0BF1               	decfsz	??_main+1,f
   829  0315  2B12               	goto	u327
   830  0316  0BF2               	decfsz	??_main+2,f
   831  0317  2B12               	goto	u327
   832  0318  2B19               	nop2
   833                           
   834                           ;my t4 c.c: 100: PORTB = 0b11111100;
   835  0319  30FC               	movlw	252
   836  031A  1283               	bcf	3,5	;RP0=0, select bank0
   837  031B  1303               	bcf	3,6	;RP1=0, select bank0
   838  031C  0086               	movwf	6	;volatile
   839                           
   840                           ;my t4 c.c: 101: _delay((unsigned long)((1000)*(8000000/4000.0)));
   841  031D  300B               	movlw	11
   842  031E  00F2               	movwf	??_main+2
   843  031F  3026               	movlw	38
   844  0320  00F1               	movwf	??_main+1
   845  0321  3066               	movlw	102
   846  0322  00F0               	movwf	??_main
   847  0323                     u337:	
   848  0323  0BF0               	decfsz	??_main,f
   849  0324  2B23               	goto	u337
   850  0325  0BF1               	decfsz	??_main+1,f
   851  0326  2B23               	goto	u337
   852  0327  0BF2               	decfsz	??_main+2,f
   853  0328  2B23               	goto	u337
   854  0329  2B2A               	nop2
   855                           
   856                           ;my t4 c.c: 102: PORTB = 0b11111110;
   857  032A  30FE               	movlw	254
   858  032B  1283               	bcf	3,5	;RP0=0, select bank0
   859  032C  1303               	bcf	3,6	;RP1=0, select bank0
   860  032D  0086               	movwf	6	;volatile
   861                           
   862                           ;my t4 c.c: 103: _delay((unsigned long)((1000)*(8000000/4000.0)));
   863  032E  300B               	movlw	11
   864  032F  00F2               	movwf	??_main+2
   865  0330  3026               	movlw	38
   866  0331  00F1               	movwf	??_main+1
   867  0332  3066               	movlw	102
   868  0333  00F0               	movwf	??_main
   869  0334                     u347:	
   870  0334  0BF0               	decfsz	??_main,f
   871  0335  2B34               	goto	u347
   872  0336  0BF1               	decfsz	??_main+1,f
   873  0337  2B34               	goto	u347
   874  0338  0BF2               	decfsz	??_main+2,f
   875  0339  2B34               	goto	u347
   876  033A  2B3B               	nop2
   877                           
   878                           ;my t4 c.c: 104: PORTB = 0b11111111;
   879  033B  30FF               	movlw	255
   880  033C  1283               	bcf	3,5	;RP0=0, select bank0
   881  033D  1303               	bcf	3,6	;RP1=0, select bank0
   882  033E  0086               	movwf	6	;volatile
   883                           
   884                           ;my t4 c.c: 105: _delay((unsigned long)((1000)*(8000000/4000.0)));
   885  033F  300B               	movlw	11
   886  0340  00F2               	movwf	??_main+2
   887  0341  3026               	movlw	38
   888  0342  00F1               	movwf	??_main+1
   889  0343  3066               	movlw	102
   890  0344  00F0               	movwf	??_main
   891  0345                     u357:	
   892  0345  0BF0               	decfsz	??_main,f
   893  0346  2B45               	goto	u357
   894  0347  0BF1               	decfsz	??_main+1,f
   895  0348  2B45               	goto	u357
   896  0349  0BF2               	decfsz	??_main+2,f
   897  034A  2B45               	goto	u357
   898  034B  2B4C               	nop2
   899                           
   900                           ;my t4 c.c: 106: PORTB = 0b01111111;
   901  034C  307F               	movlw	127
   902  034D  1283               	bcf	3,5	;RP0=0, select bank0
   903  034E  1303               	bcf	3,6	;RP1=0, select bank0
   904  034F  0086               	movwf	6	;volatile
   905                           
   906                           ;my t4 c.c: 107: _delay((unsigned long)((1000)*(8000000/4000.0)));
   907  0350  300B               	movlw	11
   908  0351  00F2               	movwf	??_main+2
   909  0352  3026               	movlw	38
   910  0353  00F1               	movwf	??_main+1
   911  0354  3066               	movlw	102
   912  0355  00F0               	movwf	??_main
   913  0356                     u367:	
   914  0356  0BF0               	decfsz	??_main,f
   915  0357  2B56               	goto	u367
   916  0358  0BF1               	decfsz	??_main+1,f
   917  0359  2B56               	goto	u367
   918  035A  0BF2               	decfsz	??_main+2,f
   919  035B  2B56               	goto	u367
   920  035C  2B5D               	nop2
   921                           
   922                           ;my t4 c.c: 108: PORTB = 0b00111111;
   923  035D  303F               	movlw	63
   924  035E  1283               	bcf	3,5	;RP0=0, select bank0
   925  035F  1303               	bcf	3,6	;RP1=0, select bank0
   926  0360  0086               	movwf	6	;volatile
   927                           
   928                           ;my t4 c.c: 109: _delay((unsigned long)((1000)*(8000000/4000.0)));
   929  0361  300B               	movlw	11
   930  0362  00F2               	movwf	??_main+2
   931  0363  3026               	movlw	38
   932  0364  00F1               	movwf	??_main+1
   933  0365  3066               	movlw	102
   934  0366  00F0               	movwf	??_main
   935  0367                     u377:	
   936  0367  0BF0               	decfsz	??_main,f
   937  0368  2B67               	goto	u377
   938  0369  0BF1               	decfsz	??_main+1,f
   939  036A  2B67               	goto	u377
   940  036B  0BF2               	decfsz	??_main+2,f
   941  036C  2B67               	goto	u377
   942  036D  2B6E               	nop2
   943                           
   944                           ;my t4 c.c: 110: PORTB = 0b00011111;
   945  036E  301F               	movlw	31
   946  036F  1283               	bcf	3,5	;RP0=0, select bank0
   947  0370  1303               	bcf	3,6	;RP1=0, select bank0
   948  0371  0086               	movwf	6	;volatile
   949                           
   950                           ;my t4 c.c: 111: _delay((unsigned long)((1000)*(8000000/4000.0)));
   951  0372  300B               	movlw	11
   952  0373  00F2               	movwf	??_main+2
   953  0374  3026               	movlw	38
   954  0375  00F1               	movwf	??_main+1
   955  0376  3066               	movlw	102
   956  0377  00F0               	movwf	??_main
   957  0378                     u387:	
   958  0378  0BF0               	decfsz	??_main,f
   959  0379  2B78               	goto	u387
   960  037A  0BF1               	decfsz	??_main+1,f
   961  037B  2B78               	goto	u387
   962  037C  0BF2               	decfsz	??_main+2,f
   963  037D  2B78               	goto	u387
   964  037E  2B7F               	nop2
   965                           
   966                           ;my t4 c.c: 112: PORTB = 0b00001111;
   967  037F  300F               	movlw	15
   968  0380  1283               	bcf	3,5	;RP0=0, select bank0
   969  0381  1303               	bcf	3,6	;RP1=0, select bank0
   970  0382  0086               	movwf	6	;volatile
   971                           
   972                           ;my t4 c.c: 113: _delay((unsigned long)((1000)*(8000000/4000.0)));
   973  0383  300B               	movlw	11
   974  0384  00F2               	movwf	??_main+2
   975  0385  3026               	movlw	38
   976  0386  00F1               	movwf	??_main+1
   977  0387  3066               	movlw	102
   978  0388  00F0               	movwf	??_main
   979  0389                     u397:	
   980  0389  0BF0               	decfsz	??_main,f
   981  038A  2B89               	goto	u397
   982  038B  0BF1               	decfsz	??_main+1,f
   983  038C  2B89               	goto	u397
   984  038D  0BF2               	decfsz	??_main+2,f
   985  038E  2B89               	goto	u397
   986  038F  2B90               	nop2
   987                           
   988                           ;my t4 c.c: 114: PORTB = 0b00000111;
   989  0390  3007               	movlw	7
   990  0391  1283               	bcf	3,5	;RP0=0, select bank0
   991  0392  1303               	bcf	3,6	;RP1=0, select bank0
   992  0393  0086               	movwf	6	;volatile
   993                           
   994                           ;my t4 c.c: 115: _delay((unsigned long)((1000)*(8000000/4000.0)));
   995  0394  300B               	movlw	11
   996  0395  00F2               	movwf	??_main+2
   997  0396  3026               	movlw	38
   998  0397  00F1               	movwf	??_main+1
   999  0398  3066               	movlw	102
  1000  0399  00F0               	movwf	??_main
  1001  039A                     u407:	
  1002  039A  0BF0               	decfsz	??_main,f
  1003  039B  2B9A               	goto	u407
  1004  039C  0BF1               	decfsz	??_main+1,f
  1005  039D  2B9A               	goto	u407
  1006  039E  0BF2               	decfsz	??_main+2,f
  1007  039F  2B9A               	goto	u407
  1008  03A0  2BA1               	nop2
  1009                           
  1010                           ;my t4 c.c: 116: PORTB = 0b00000011;
  1011  03A1  3003               	movlw	3
  1012  03A2  1283               	bcf	3,5	;RP0=0, select bank0
  1013  03A3  1303               	bcf	3,6	;RP1=0, select bank0
  1014  03A4  0086               	movwf	6	;volatile
  1015                           
  1016                           ;my t4 c.c: 117: _delay((unsigned long)((1000)*(8000000/4000.0)));
  1017  03A5  300B               	movlw	11
  1018  03A6  00F2               	movwf	??_main+2
  1019  03A7  3026               	movlw	38
  1020  03A8  00F1               	movwf	??_main+1
  1021  03A9  3066               	movlw	102
  1022  03AA  00F0               	movwf	??_main
  1023  03AB                     u417:	
  1024  03AB  0BF0               	decfsz	??_main,f
  1025  03AC  2BAB               	goto	u417
  1026  03AD  0BF1               	decfsz	??_main+1,f
  1027  03AE  2BAB               	goto	u417
  1028  03AF  0BF2               	decfsz	??_main+2,f
  1029  03B0  2BAB               	goto	u417
  1030  03B1  2BB2               	nop2
  1031                           
  1032                           ;my t4 c.c: 118: PORTB = 0b00000001;
  1033  03B2  3001               	movlw	1
  1034  03B3  1283               	bcf	3,5	;RP0=0, select bank0
  1035  03B4  1303               	bcf	3,6	;RP1=0, select bank0
  1036  03B5  0086               	movwf	6	;volatile
  1037                           
  1038                           ;my t4 c.c: 119: _delay((unsigned long)((1000)*(8000000/4000.0)));
  1039  03B6  300B               	movlw	11
  1040  03B7  00F2               	movwf	??_main+2
  1041  03B8  3026               	movlw	38
  1042  03B9  00F1               	movwf	??_main+1
  1043  03BA  3066               	movlw	102
  1044  03BB  00F0               	movwf	??_main
  1045  03BC                     u427:	
  1046  03BC  0BF0               	decfsz	??_main,f
  1047  03BD  2BBC               	goto	u427
  1048  03BE  0BF1               	decfsz	??_main+1,f
  1049  03BF  2BBC               	goto	u427
  1050  03C0  0BF2               	decfsz	??_main+2,f
  1051  03C1  2BBC               	goto	u427
  1052  03C2  2BC3               	nop2
  1053                           
  1054                           ;my t4 c.c: 120: PORTB = 0b00000000;
  1055  03C3  1283               	bcf	3,5	;RP0=0, select bank0
  1056  03C4  1303               	bcf	3,6	;RP1=0, select bank0
  1057  03C5  0186               	clrf	6	;volatile
  1058                           
  1059                           ;my t4 c.c: 121: _delay((unsigned long)((1000)*(8000000/4000.0)));
  1060  03C6  300B               	movlw	11
  1061  03C7  00F2               	movwf	??_main+2
  1062  03C8  3026               	movlw	38
  1063  03C9  00F1               	movwf	??_main+1
  1064  03CA  3066               	movlw	102
  1065  03CB  00F0               	movwf	??_main
  1066  03CC                     u437:	
  1067  03CC  0BF0               	decfsz	??_main,f
  1068  03CD  2BCC               	goto	u437
  1069  03CE  0BF1               	decfsz	??_main+1,f
  1070  03CF  2BCC               	goto	u437
  1071  03D0  0BF2               	decfsz	??_main+2,f
  1072  03D1  2BCC               	goto	u437
  1073  03D2  2BD3               	nop2
  1074                           
  1075                           ;my t4 c.c: 122: PORTB = 0b10000001;
  1076  03D3  3081               	movlw	129
  1077  03D4  1283               	bcf	3,5	;RP0=0, select bank0
  1078  03D5  1303               	bcf	3,6	;RP1=0, select bank0
  1079  03D6  0086               	movwf	6	;volatile
  1080                           
  1081                           ;my t4 c.c: 123: _delay((unsigned long)((1000)*(8000000/4000.0)));
  1082  03D7  300B               	movlw	11
  1083  03D8  00F2               	movwf	??_main+2
  1084  03D9  3026               	movlw	38
  1085  03DA  00F1               	movwf	??_main+1
  1086  03DB  3066               	movlw	102
  1087  03DC  00F0               	movwf	??_main
  1088  03DD                     u447:	
  1089  03DD  0BF0               	decfsz	??_main,f
  1090  03DE  2BDD               	goto	u447
  1091  03DF  0BF1               	decfsz	??_main+1,f
  1092  03E0  2BDD               	goto	u447
  1093  03E1  0BF2               	decfsz	??_main+2,f
  1094  03E2  2BDD               	goto	u447
  1095  03E3  2BE4               	nop2
  1096                           
  1097                           ;my t4 c.c: 124: PORTB = 0b11000011;
  1098  03E4  30C3               	movlw	195
  1099  03E5  1283               	bcf	3,5	;RP0=0, select bank0
  1100  03E6  1303               	bcf	3,6	;RP1=0, select bank0
  1101  03E7  0086               	movwf	6	;volatile
  1102                           
  1103                           ;my t4 c.c: 125: _delay((unsigned long)((1000)*(8000000/4000.0)));
  1104  03E8  300B               	movlw	11
  1105  03E9  00F2               	movwf	??_main+2
  1106  03EA  3026               	movlw	38
  1107  03EB  00F1               	movwf	??_main+1
  1108  03EC  3066               	movlw	102
  1109  03ED  00F0               	movwf	??_main
  1110  03EE                     u457:	
  1111  03EE  0BF0               	decfsz	??_main,f
  1112  03EF  2BEE               	goto	u457
  1113  03F0  0BF1               	decfsz	??_main+1,f
  1114  03F1  2BEE               	goto	u457
  1115  03F2  0BF2               	decfsz	??_main+2,f
  1116  03F3  2BEE               	goto	u457
  1117  03F4  2BF5               	nop2
  1118                           
  1119                           ;my t4 c.c: 126: PORTB = 0b11100111;
  1120  03F5  30E7               	movlw	231
  1121  03F6  1283               	bcf	3,5	;RP0=0, select bank0
  1122  03F7  1303               	bcf	3,6	;RP1=0, select bank0
  1123  03F8  0086               	movwf	6	;volatile
  1124                           
  1125                           ;my t4 c.c: 127: _delay((unsigned long)((1000)*(8000000/4000.0)));
  1126  03F9  300B               	movlw	11
  1127  03FA  00F2               	movwf	??_main+2
  1128  03FB  3026               	movlw	38
  1129  03FC  00F1               	movwf	??_main+1
  1130  03FD  3066               	movlw	102
  1131  03FE  00F0               	movwf	??_main
  1132  03FF                     u467:	
  1133  03FF  0BF0               	decfsz	??_main,f
  1134  0400  2BFF               	goto	u467
  1135  0401  0BF1               	decfsz	??_main+1,f
  1136  0402  2BFF               	goto	u467
  1137  0403  0BF2               	decfsz	??_main+2,f
  1138  0404  2BFF               	goto	u467
  1139  0405  2C06               	nop2
  1140                           
  1141                           ;my t4 c.c: 128: PORTB = 0b11111111;
  1142  0406  30FF               	movlw	255
  1143  0407  1283               	bcf	3,5	;RP0=0, select bank0
  1144  0408  1303               	bcf	3,6	;RP1=0, select bank0
  1145  0409  0086               	movwf	6	;volatile
  1146                           
  1147                           ;my t4 c.c: 129: _delay((unsigned long)((1000)*(8000000/4000.0)));
  1148  040A  300B               	movlw	11
  1149  040B  00F2               	movwf	??_main+2
  1150  040C  3026               	movlw	38
  1151  040D  00F1               	movwf	??_main+1
  1152  040E  3066               	movlw	102
  1153  040F  00F0               	movwf	??_main
  1154  0410                     u477:	
  1155  0410  0BF0               	decfsz	??_main,f
  1156  0411  2C10               	goto	u477
  1157  0412  0BF1               	decfsz	??_main+1,f
  1158  0413  2C10               	goto	u477
  1159  0414  0BF2               	decfsz	??_main+2,f
  1160  0415  2C10               	goto	u477
  1161  0416  2C17               	nop2
  1162                           
  1163                           ;my t4 c.c: 130: PORTB = 0b11100111;
  1164  0417  30E7               	movlw	231
  1165  0418  1283               	bcf	3,5	;RP0=0, select bank0
  1166  0419  1303               	bcf	3,6	;RP1=0, select bank0
  1167  041A  0086               	movwf	6	;volatile
  1168                           
  1169                           ;my t4 c.c: 131: _delay((unsigned long)((1000)*(8000000/4000.0)));
  1170  041B  300B               	movlw	11
  1171  041C  00F2               	movwf	??_main+2
  1172  041D  3026               	movlw	38
  1173  041E  00F1               	movwf	??_main+1
  1174  041F  3066               	movlw	102
  1175  0420  00F0               	movwf	??_main
  1176  0421                     u487:	
  1177  0421  0BF0               	decfsz	??_main,f
  1178  0422  2C21               	goto	u487
  1179  0423  0BF1               	decfsz	??_main+1,f
  1180  0424  2C21               	goto	u487
  1181  0425  0BF2               	decfsz	??_main+2,f
  1182  0426  2C21               	goto	u487
  1183  0427  2C28               	nop2
  1184                           
  1185                           ;my t4 c.c: 132: PORTB = 0b11000011;
  1186  0428  30C3               	movlw	195
  1187  0429  1283               	bcf	3,5	;RP0=0, select bank0
  1188  042A  1303               	bcf	3,6	;RP1=0, select bank0
  1189  042B  0086               	movwf	6	;volatile
  1190                           
  1191                           ;my t4 c.c: 133: _delay((unsigned long)((1000)*(8000000/4000.0)));
  1192  042C  300B               	movlw	11
  1193  042D  00F2               	movwf	??_main+2
  1194  042E  3026               	movlw	38
  1195  042F  00F1               	movwf	??_main+1
  1196  0430  3066               	movlw	102
  1197  0431  00F0               	movwf	??_main
  1198  0432                     u497:	
  1199  0432  0BF0               	decfsz	??_main,f
  1200  0433  2C32               	goto	u497
  1201  0434  0BF1               	decfsz	??_main+1,f
  1202  0435  2C32               	goto	u497
  1203  0436  0BF2               	decfsz	??_main+2,f
  1204  0437  2C32               	goto	u497
  1205  0438  2C39               	nop2
  1206                           
  1207                           ;my t4 c.c: 134: PORTB = 0b10000001;
  1208  0439  3081               	movlw	129
  1209  043A  1283               	bcf	3,5	;RP0=0, select bank0
  1210  043B  1303               	bcf	3,6	;RP1=0, select bank0
  1211  043C  0086               	movwf	6	;volatile
  1212                           
  1213                           ;my t4 c.c: 135: _delay((unsigned long)((1000)*(8000000/4000.0)));
  1214  043D  300B               	movlw	11
  1215  043E  00F2               	movwf	??_main+2
  1216  043F  3026               	movlw	38
  1217  0440  00F1               	movwf	??_main+1
  1218  0441  3066               	movlw	102
  1219  0442  00F0               	movwf	??_main
  1220  0443                     u507:	
  1221  0443  0BF0               	decfsz	??_main,f
  1222  0444  2C43               	goto	u507
  1223  0445  0BF1               	decfsz	??_main+1,f
  1224  0446  2C43               	goto	u507
  1225  0447  0BF2               	decfsz	??_main+2,f
  1226  0448  2C43               	goto	u507
  1227  0449  2C4A               	nop2
  1228                           
  1229                           ;my t4 c.c: 136: PORTB = 0b00000000;
  1230  044A  1283               	bcf	3,5	;RP0=0, select bank0
  1231  044B  1303               	bcf	3,6	;RP1=0, select bank0
  1232  044C  0186               	clrf	6	;volatile
  1233                           
  1234                           ;my t4 c.c: 137: _delay((unsigned long)((1000)*(8000000/4000.0)));
  1235  044D  300B               	movlw	11
  1236  044E  00F2               	movwf	??_main+2
  1237  044F  3026               	movlw	38
  1238  0450  00F1               	movwf	??_main+1
  1239  0451  3066               	movlw	102
  1240  0452  00F0               	movwf	??_main
  1241  0453                     u517:	
  1242  0453  0BF0               	decfsz	??_main,f
  1243  0454  2C53               	goto	u517
  1244  0455  0BF1               	decfsz	??_main+1,f
  1245  0456  2C53               	goto	u517
  1246  0457  0BF2               	decfsz	??_main+2,f
  1247  0458  2C53               	goto	u517
  1248  0459  2C5A               	nop2
  1249                           
  1250                           ;my t4 c.c: 138: PORTB = 0b10000001;
  1251  045A  3081               	movlw	129
  1252  045B  1283               	bcf	3,5	;RP0=0, select bank0
  1253  045C  1303               	bcf	3,6	;RP1=0, select bank0
  1254  045D  0086               	movwf	6	;volatile
  1255                           
  1256                           ;my t4 c.c: 139: _delay((unsigned long)((1000)*(8000000/4000.0)));
  1257  045E  300B               	movlw	11
  1258  045F  00F2               	movwf	??_main+2
  1259  0460  3026               	movlw	38
  1260  0461  00F1               	movwf	??_main+1
  1261  0462  3066               	movlw	102
  1262  0463  00F0               	movwf	??_main
  1263  0464                     u527:	
  1264  0464  0BF0               	decfsz	??_main,f
  1265  0465  2C64               	goto	u527
  1266  0466  0BF1               	decfsz	??_main+1,f
  1267  0467  2C64               	goto	u527
  1268  0468  0BF2               	decfsz	??_main+2,f
  1269  0469  2C64               	goto	u527
  1270  046A  2C6B               	nop2
  1271                           
  1272                           ;my t4 c.c: 140: PORTB = 0b11000011;
  1273  046B  30C3               	movlw	195
  1274  046C  1283               	bcf	3,5	;RP0=0, select bank0
  1275  046D  1303               	bcf	3,6	;RP1=0, select bank0
  1276  046E  0086               	movwf	6	;volatile
  1277                           
  1278                           ;my t4 c.c: 141: _delay((unsigned long)((1000)*(8000000/4000.0)));
  1279  046F  300B               	movlw	11
  1280  0470  00F2               	movwf	??_main+2
  1281  0471  3026               	movlw	38
  1282  0472  00F1               	movwf	??_main+1
  1283  0473  3066               	movlw	102
  1284  0474  00F0               	movwf	??_main
  1285  0475                     u537:	
  1286  0475  0BF0               	decfsz	??_main,f
  1287  0476  2C75               	goto	u537
  1288  0477  0BF1               	decfsz	??_main+1,f
  1289  0478  2C75               	goto	u537
  1290  0479  0BF2               	decfsz	??_main+2,f
  1291  047A  2C75               	goto	u537
  1292  047B  2C7C               	nop2
  1293                           
  1294                           ;my t4 c.c: 142: PORTB = 0b11100111;
  1295  047C  30E7               	movlw	231
  1296  047D  1283               	bcf	3,5	;RP0=0, select bank0
  1297  047E  1303               	bcf	3,6	;RP1=0, select bank0
  1298  047F  0086               	movwf	6	;volatile
  1299                           
  1300                           ;my t4 c.c: 143: _delay((unsigned long)((1000)*(8000000/4000.0)));
  1301  0480  300B               	movlw	11
  1302  0481  00F2               	movwf	??_main+2
  1303  0482  3026               	movlw	38
  1304  0483  00F1               	movwf	??_main+1
  1305  0484  3066               	movlw	102
  1306  0485  00F0               	movwf	??_main
  1307  0486                     u547:	
  1308  0486  0BF0               	decfsz	??_main,f
  1309  0487  2C86               	goto	u547
  1310  0488  0BF1               	decfsz	??_main+1,f
  1311  0489  2C86               	goto	u547
  1312  048A  0BF2               	decfsz	??_main+2,f
  1313  048B  2C86               	goto	u547
  1314  048C  2C8D               	nop2
  1315                           
  1316                           ;my t4 c.c: 144: PORTB = 0b11111111;
  1317  048D  30FF               	movlw	255
  1318  048E  1283               	bcf	3,5	;RP0=0, select bank0
  1319  048F  1303               	bcf	3,6	;RP1=0, select bank0
  1320  0490  0086               	movwf	6	;volatile
  1321                           
  1322                           ;my t4 c.c: 145: _delay((unsigned long)((1000)*(8000000/4000.0)));
  1323  0491  300B               	movlw	11
  1324  0492  00F2               	movwf	??_main+2
  1325  0493  3026               	movlw	38
  1326  0494  00F1               	movwf	??_main+1
  1327  0495  3066               	movlw	102
  1328  0496  00F0               	movwf	??_main
  1329  0497                     u557:	
  1330  0497  0BF0               	decfsz	??_main,f
  1331  0498  2C97               	goto	u557
  1332  0499  0BF1               	decfsz	??_main+1,f
  1333  049A  2C97               	goto	u557
  1334  049B  0BF2               	decfsz	??_main+2,f
  1335  049C  2C97               	goto	u557
  1336  049D  2C9E               	nop2
  1337                           
  1338                           ;my t4 c.c: 146: PORTB = 0b01111110;
  1339  049E  307E               	movlw	126
  1340  049F  1283               	bcf	3,5	;RP0=0, select bank0
  1341  04A0  1303               	bcf	3,6	;RP1=0, select bank0
  1342  04A1  0086               	movwf	6	;volatile
  1343                           
  1344                           ;my t4 c.c: 147: _delay((unsigned long)((1000)*(8000000/4000.0)));
  1345  04A2  300B               	movlw	11
  1346  04A3  00F2               	movwf	??_main+2
  1347  04A4  3026               	movlw	38
  1348  04A5  00F1               	movwf	??_main+1
  1349  04A6  3066               	movlw	102
  1350  04A7  00F0               	movwf	??_main
  1351  04A8                     u567:	
  1352  04A8  0BF0               	decfsz	??_main,f
  1353  04A9  2CA8               	goto	u567
  1354  04AA  0BF1               	decfsz	??_main+1,f
  1355  04AB  2CA8               	goto	u567
  1356  04AC  0BF2               	decfsz	??_main+2,f
  1357  04AD  2CA8               	goto	u567
  1358  04AE  2CAF               	nop2
  1359                           
  1360                           ;my t4 c.c: 148: PORTB = 0b00111100;
  1361  04AF  303C               	movlw	60
  1362  04B0  1283               	bcf	3,5	;RP0=0, select bank0
  1363  04B1  1303               	bcf	3,6	;RP1=0, select bank0
  1364  04B2  0086               	movwf	6	;volatile
  1365                           
  1366                           ;my t4 c.c: 149: _delay((unsigned long)((1000)*(8000000/4000.0)));
  1367  04B3  300B               	movlw	11
  1368  04B4  00F2               	movwf	??_main+2
  1369  04B5  3026               	movlw	38
  1370  04B6  00F1               	movwf	??_main+1
  1371  04B7  3066               	movlw	102
  1372  04B8  00F0               	movwf	??_main
  1373  04B9                     u577:	
  1374  04B9  0BF0               	decfsz	??_main,f
  1375  04BA  2CB9               	goto	u577
  1376  04BB  0BF1               	decfsz	??_main+1,f
  1377  04BC  2CB9               	goto	u577
  1378  04BD  0BF2               	decfsz	??_main+2,f
  1379  04BE  2CB9               	goto	u577
  1380  04BF  2CC0               	nop2
  1381                           
  1382                           ;my t4 c.c: 150: PORTB = 0b00011000;
  1383  04C0  3018               	movlw	24
  1384  04C1  1283               	bcf	3,5	;RP0=0, select bank0
  1385  04C2  1303               	bcf	3,6	;RP1=0, select bank0
  1386  04C3  0086               	movwf	6	;volatile
  1387                           
  1388                           ;my t4 c.c: 151: _delay((unsigned long)((1000)*(8000000/4000.0)));
  1389  04C4  300B               	movlw	11
  1390  04C5  00F2               	movwf	??_main+2
  1391  04C6  3026               	movlw	38
  1392  04C7  00F1               	movwf	??_main+1
  1393  04C8  3066               	movlw	102
  1394  04C9  00F0               	movwf	??_main
  1395  04CA                     u587:	
  1396  04CA  0BF0               	decfsz	??_main,f
  1397  04CB  2CCA               	goto	u587
  1398  04CC  0BF1               	decfsz	??_main+1,f
  1399  04CD  2CCA               	goto	u587
  1400  04CE  0BF2               	decfsz	??_main+2,f
  1401  04CF  2CCA               	goto	u587
  1402  04D0  2CD1               	nop2
  1403                           
  1404                           ;my t4 c.c: 152: PORTB = 0b00000000;
  1405  04D1  1283               	bcf	3,5	;RP0=0, select bank0
  1406  04D2  1303               	bcf	3,6	;RP1=0, select bank0
  1407  04D3  0186               	clrf	6	;volatile
  1408                           
  1409                           ;my t4 c.c: 153: _delay((unsigned long)((1000)*(8000000/4000.0)));
  1410  04D4  300B               	movlw	11
  1411  04D5  00F2               	movwf	??_main+2
  1412  04D6  3026               	movlw	38
  1413  04D7  00F1               	movwf	??_main+1
  1414  04D8  3066               	movlw	102
  1415  04D9  00F0               	movwf	??_main
  1416  04DA                     u597:	
  1417  04DA  0BF0               	decfsz	??_main,f
  1418  04DB  2CDA               	goto	u597
  1419  04DC  0BF1               	decfsz	??_main+1,f
  1420  04DD  2CDA               	goto	u597
  1421  04DE  0BF2               	decfsz	??_main+2,f
  1422  04DF  2CDA               	goto	u597
  1423  04E0  2CE1               	nop2
  1424                           
  1425                           ;my t4 c.c: 154: PORTB = 0b00011000;
  1426  04E1  3018               	movlw	24
  1427  04E2  1283               	bcf	3,5	;RP0=0, select bank0
  1428  04E3  1303               	bcf	3,6	;RP1=0, select bank0
  1429  04E4  0086               	movwf	6	;volatile
  1430                           
  1431                           ;my t4 c.c: 155: _delay((unsigned long)((1000)*(8000000/4000.0)));
  1432  04E5  300B               	movlw	11
  1433  04E6  00F2               	movwf	??_main+2
  1434  04E7  3026               	movlw	38
  1435  04E8  00F1               	movwf	??_main+1
  1436  04E9  3066               	movlw	102
  1437  04EA  00F0               	movwf	??_main
  1438  04EB                     u607:	
  1439  04EB  0BF0               	decfsz	??_main,f
  1440  04EC  2CEB               	goto	u607
  1441  04ED  0BF1               	decfsz	??_main+1,f
  1442  04EE  2CEB               	goto	u607
  1443  04EF  0BF2               	decfsz	??_main+2,f
  1444  04F0  2CEB               	goto	u607
  1445  04F1  2CF2               	nop2
  1446                           
  1447                           ;my t4 c.c: 156: PORTB = 0b00111100;
  1448  04F2  303C               	movlw	60
  1449  04F3  1283               	bcf	3,5	;RP0=0, select bank0
  1450  04F4  1303               	bcf	3,6	;RP1=0, select bank0
  1451  04F5  0086               	movwf	6	;volatile
  1452                           
  1453                           ;my t4 c.c: 157: _delay((unsigned long)((1000)*(8000000/4000.0)));
  1454  04F6  300B               	movlw	11
  1455  04F7  00F2               	movwf	??_main+2
  1456  04F8  3026               	movlw	38
  1457  04F9  00F1               	movwf	??_main+1
  1458  04FA  3066               	movlw	102
  1459  04FB  00F0               	movwf	??_main
  1460  04FC                     u617:	
  1461  04FC  0BF0               	decfsz	??_main,f
  1462  04FD  2CFC               	goto	u617
  1463  04FE  0BF1               	decfsz	??_main+1,f
  1464  04FF  2CFC               	goto	u617
  1465  0500  0BF2               	decfsz	??_main+2,f
  1466  0501  2CFC               	goto	u617
  1467  0502  2D03               	nop2
  1468                           
  1469                           ;my t4 c.c: 158: PORTB = 0b01111110;
  1470  0503  307E               	movlw	126
  1471  0504  1283               	bcf	3,5	;RP0=0, select bank0
  1472  0505  1303               	bcf	3,6	;RP1=0, select bank0
  1473  0506  0086               	movwf	6	;volatile
  1474                           
  1475                           ;my t4 c.c: 159: _delay((unsigned long)((1000)*(8000000/4000.0)));
  1476  0507  300B               	movlw	11
  1477  0508  00F2               	movwf	??_main+2
  1478  0509  3026               	movlw	38
  1479  050A  00F1               	movwf	??_main+1
  1480  050B  3066               	movlw	102
  1481  050C  00F0               	movwf	??_main
  1482  050D                     u627:	
  1483  050D  0BF0               	decfsz	??_main,f
  1484  050E  2D0D               	goto	u627
  1485  050F  0BF1               	decfsz	??_main+1,f
  1486  0510  2D0D               	goto	u627
  1487  0511  0BF2               	decfsz	??_main+2,f
  1488  0512  2D0D               	goto	u627
  1489  0513  2D14               	nop2
  1490                           
  1491                           ;my t4 c.c: 160: PORTB = 0b11111111;
  1492  0514  30FF               	movlw	255
  1493  0515  1283               	bcf	3,5	;RP0=0, select bank0
  1494  0516  1303               	bcf	3,6	;RP1=0, select bank0
  1495  0517  0086               	movwf	6	;volatile
  1496                           
  1497                           ;my t4 c.c: 161: _delay((unsigned long)((1000)*(8000000/4000.0)));
  1498  0518  300B               	movlw	11
  1499  0519  00F2               	movwf	??_main+2
  1500  051A  3026               	movlw	38
  1501  051B  00F1               	movwf	??_main+1
  1502  051C  3066               	movlw	102
  1503  051D  00F0               	movwf	??_main
  1504  051E                     u637:	
  1505  051E  0BF0               	decfsz	??_main,f
  1506  051F  2D1E               	goto	u637
  1507  0520  0BF1               	decfsz	??_main+1,f
  1508  0521  2D1E               	goto	u637
  1509  0522  0BF2               	decfsz	??_main+2,f
  1510  0523  2D1E               	goto	u637
  1511  0524  2D25               	nop2
  1512                           
  1513                           ;my t4 c.c: 162: PORTB = 0b11100111;
  1514  0525  30E7               	movlw	231
  1515  0526  1283               	bcf	3,5	;RP0=0, select bank0
  1516  0527  1303               	bcf	3,6	;RP1=0, select bank0
  1517  0528  0086               	movwf	6	;volatile
  1518                           
  1519                           ;my t4 c.c: 163: _delay((unsigned long)((1000)*(8000000/4000.0)));
  1520  0529  300B               	movlw	11
  1521  052A  00F2               	movwf	??_main+2
  1522  052B  3026               	movlw	38
  1523  052C  00F1               	movwf	??_main+1
  1524  052D  3066               	movlw	102
  1525  052E  00F0               	movwf	??_main
  1526  052F                     u647:	
  1527  052F  0BF0               	decfsz	??_main,f
  1528  0530  2D2F               	goto	u647
  1529  0531  0BF1               	decfsz	??_main+1,f
  1530  0532  2D2F               	goto	u647
  1531  0533  0BF2               	decfsz	??_main+2,f
  1532  0534  2D2F               	goto	u647
  1533  0535  2D36               	nop2
  1534                           
  1535                           ;my t4 c.c: 164: PORTB = 0b11000011;
  1536  0536  30C3               	movlw	195
  1537  0537  1283               	bcf	3,5	;RP0=0, select bank0
  1538  0538  1303               	bcf	3,6	;RP1=0, select bank0
  1539  0539  0086               	movwf	6	;volatile
  1540                           
  1541                           ;my t4 c.c: 165: _delay((unsigned long)((1000)*(8000000/4000.0)));
  1542  053A  300B               	movlw	11
  1543  053B  00F2               	movwf	??_main+2
  1544  053C  3026               	movlw	38
  1545  053D  00F1               	movwf	??_main+1
  1546  053E  3066               	movlw	102
  1547  053F  00F0               	movwf	??_main
  1548  0540                     u657:	
  1549  0540  0BF0               	decfsz	??_main,f
  1550  0541  2D40               	goto	u657
  1551  0542  0BF1               	decfsz	??_main+1,f
  1552  0543  2D40               	goto	u657
  1553  0544  0BF2               	decfsz	??_main+2,f
  1554  0545  2D40               	goto	u657
  1555  0546  2D47               	nop2
  1556                           
  1557                           ;my t4 c.c: 166: PORTB = 0b10000001;
  1558  0547  3081               	movlw	129
  1559  0548  1283               	bcf	3,5	;RP0=0, select bank0
  1560  0549  1303               	bcf	3,6	;RP1=0, select bank0
  1561  054A  0086               	movwf	6	;volatile
  1562                           
  1563                           ;my t4 c.c: 167: _delay((unsigned long)((1000)*(8000000/4000.0)));
  1564  054B  300B               	movlw	11
  1565  054C  00F2               	movwf	??_main+2
  1566  054D  3026               	movlw	38
  1567  054E  00F1               	movwf	??_main+1
  1568  054F  3066               	movlw	102
  1569  0550  00F0               	movwf	??_main
  1570  0551                     u667:	
  1571  0551  0BF0               	decfsz	??_main,f
  1572  0552  2D51               	goto	u667
  1573  0553  0BF1               	decfsz	??_main+1,f
  1574  0554  2D51               	goto	u667
  1575  0555  0BF2               	decfsz	??_main+2,f
  1576  0556  2D51               	goto	u667
  1577  0557  2D58               	nop2
  1578                           
  1579                           ;my t4 c.c: 168: PORTB = 0b00000000;
  1580  0558  1283               	bcf	3,5	;RP0=0, select bank0
  1581  0559  1303               	bcf	3,6	;RP1=0, select bank0
  1582  055A  0186               	clrf	6	;volatile
  1583                           
  1584                           ;my t4 c.c: 169: _delay((unsigned long)((1000)*(8000000/4000.0)));
  1585  055B  300B               	movlw	11
  1586  055C  00F2               	movwf	??_main+2
  1587  055D  3026               	movlw	38
  1588  055E  00F1               	movwf	??_main+1
  1589  055F  3066               	movlw	102
  1590  0560  00F0               	movwf	??_main
  1591  0561                     u677:	
  1592  0561  0BF0               	decfsz	??_main,f
  1593  0562  2D61               	goto	u677
  1594  0563  0BF1               	decfsz	??_main+1,f
  1595  0564  2D61               	goto	u677
  1596  0565  0BF2               	decfsz	??_main+2,f
  1597  0566  2D61               	goto	u677
  1598  0567  2D68               	nop2
  1599                           
  1600                           ;my t4 c.c: 170: PORTB = 0b00011000;
  1601  0568  3018               	movlw	24
  1602  0569  1283               	bcf	3,5	;RP0=0, select bank0
  1603  056A  1303               	bcf	3,6	;RP1=0, select bank0
  1604  056B  0086               	movwf	6	;volatile
  1605                           
  1606                           ;my t4 c.c: 171: _delay((unsigned long)((1000)*(8000000/4000.0)));
  1607  056C  300B               	movlw	11
  1608  056D  00F2               	movwf	??_main+2
  1609  056E  3026               	movlw	38
  1610  056F  00F1               	movwf	??_main+1
  1611  0570  3066               	movlw	102
  1612  0571  00F0               	movwf	??_main
  1613  0572                     u687:	
  1614  0572  0BF0               	decfsz	??_main,f
  1615  0573  2D72               	goto	u687
  1616  0574  0BF1               	decfsz	??_main+1,f
  1617  0575  2D72               	goto	u687
  1618  0576  0BF2               	decfsz	??_main+2,f
  1619  0577  2D72               	goto	u687
  1620  0578  2D79               	nop2
  1621                           
  1622                           ;my t4 c.c: 172: PORTB = 0b00111100;
  1623  0579  303C               	movlw	60
  1624  057A  1283               	bcf	3,5	;RP0=0, select bank0
  1625  057B  1303               	bcf	3,6	;RP1=0, select bank0
  1626  057C  0086               	movwf	6	;volatile
  1627                           
  1628                           ;my t4 c.c: 173: _delay((unsigned long)((1000)*(8000000/4000.0)));
  1629  057D  300B               	movlw	11
  1630  057E  00F2               	movwf	??_main+2
  1631  057F  3026               	movlw	38
  1632  0580  00F1               	movwf	??_main+1
  1633  0581  3066               	movlw	102
  1634  0582  00F0               	movwf	??_main
  1635  0583                     u697:	
  1636  0583  0BF0               	decfsz	??_main,f
  1637  0584  2D83               	goto	u697
  1638  0585  0BF1               	decfsz	??_main+1,f
  1639  0586  2D83               	goto	u697
  1640  0587  0BF2               	decfsz	??_main+2,f
  1641  0588  2D83               	goto	u697
  1642  0589  2D8A               	nop2
  1643                           
  1644                           ;my t4 c.c: 174: PORTB = 0b01111110;
  1645  058A  307E               	movlw	126
  1646  058B  1283               	bcf	3,5	;RP0=0, select bank0
  1647  058C  1303               	bcf	3,6	;RP1=0, select bank0
  1648  058D  0086               	movwf	6	;volatile
  1649                           
  1650                           ;my t4 c.c: 175: _delay((unsigned long)((1000)*(8000000/4000.0)));
  1651  058E  300B               	movlw	11
  1652  058F  00F2               	movwf	??_main+2
  1653  0590  3026               	movlw	38
  1654  0591  00F1               	movwf	??_main+1
  1655  0592  3066               	movlw	102
  1656  0593  00F0               	movwf	??_main
  1657  0594                     u707:	
  1658  0594  0BF0               	decfsz	??_main,f
  1659  0595  2D94               	goto	u707
  1660  0596  0BF1               	decfsz	??_main+1,f
  1661  0597  2D94               	goto	u707
  1662  0598  0BF2               	decfsz	??_main+2,f
  1663  0599  2D94               	goto	u707
  1664  059A  2D9B               	nop2
  1665                           
  1666                           ;my t4 c.c: 176: PORTB = 0b11111111;
  1667  059B  30FF               	movlw	255
  1668  059C  1283               	bcf	3,5	;RP0=0, select bank0
  1669  059D  1303               	bcf	3,6	;RP1=0, select bank0
  1670  059E  0086               	movwf	6	;volatile
  1671                           
  1672                           ;my t4 c.c: 177: _delay((unsigned long)((1000)*(8000000/4000.0)));
  1673  059F  300B               	movlw	11
  1674  05A0  00F2               	movwf	??_main+2
  1675  05A1  3026               	movlw	38
  1676  05A2  00F1               	movwf	??_main+1
  1677  05A3  3066               	movlw	102
  1678  05A4  00F0               	movwf	??_main
  1679  05A5                     u717:	
  1680  05A5  0BF0               	decfsz	??_main,f
  1681  05A6  2DA5               	goto	u717
  1682  05A7  0BF1               	decfsz	??_main+1,f
  1683  05A8  2DA5               	goto	u717
  1684  05A9  0BF2               	decfsz	??_main+2,f
  1685  05AA  2DA5               	goto	u717
  1686  05AB  2DAC               	nop2
  1687                           
  1688                           ;my t4 c.c: 178: PORTB = 0b11100111;
  1689  05AC  30E7               	movlw	231
  1690  05AD  1283               	bcf	3,5	;RP0=0, select bank0
  1691  05AE  1303               	bcf	3,6	;RP1=0, select bank0
  1692  05AF  0086               	movwf	6	;volatile
  1693                           
  1694                           ;my t4 c.c: 179: _delay((unsigned long)((1000)*(8000000/4000.0)));
  1695  05B0  300B               	movlw	11
  1696  05B1  00F2               	movwf	??_main+2
  1697  05B2  3026               	movlw	38
  1698  05B3  00F1               	movwf	??_main+1
  1699  05B4  3066               	movlw	102
  1700  05B5  00F0               	movwf	??_main
  1701  05B6                     u727:	
  1702  05B6  0BF0               	decfsz	??_main,f
  1703  05B7  2DB6               	goto	u727
  1704  05B8  0BF1               	decfsz	??_main+1,f
  1705  05B9  2DB6               	goto	u727
  1706  05BA  0BF2               	decfsz	??_main+2,f
  1707  05BB  2DB6               	goto	u727
  1708  05BC  2DBD               	nop2
  1709                           
  1710                           ;my t4 c.c: 180: PORTB = 0b11000011;
  1711  05BD  30C3               	movlw	195
  1712  05BE  1283               	bcf	3,5	;RP0=0, select bank0
  1713  05BF  1303               	bcf	3,6	;RP1=0, select bank0
  1714  05C0  0086               	movwf	6	;volatile
  1715                           
  1716                           ;my t4 c.c: 181: _delay((unsigned long)((1000)*(8000000/4000.0)));
  1717  05C1  300B               	movlw	11
  1718  05C2  00F2               	movwf	??_main+2
  1719  05C3  3026               	movlw	38
  1720  05C4  00F1               	movwf	??_main+1
  1721  05C5  3066               	movlw	102
  1722  05C6  00F0               	movwf	??_main
  1723  05C7                     u737:	
  1724  05C7  0BF0               	decfsz	??_main,f
  1725  05C8  2DC7               	goto	u737
  1726  05C9  0BF1               	decfsz	??_main+1,f
  1727  05CA  2DC7               	goto	u737
  1728  05CB  0BF2               	decfsz	??_main+2,f
  1729  05CC  2DC7               	goto	u737
  1730  05CD  2DCE               	nop2
  1731                           
  1732                           ;my t4 c.c: 182: PORTB = 0b10000001;
  1733  05CE  3081               	movlw	129
  1734  05CF  1283               	bcf	3,5	;RP0=0, select bank0
  1735  05D0  1303               	bcf	3,6	;RP1=0, select bank0
  1736  05D1  0086               	movwf	6	;volatile
  1737                           
  1738                           ;my t4 c.c: 183: _delay((unsigned long)((1000)*(8000000/4000.0)));
  1739  05D2  300B               	movlw	11
  1740  05D3  00F2               	movwf	??_main+2
  1741  05D4  3026               	movlw	38
  1742  05D5  00F1               	movwf	??_main+1
  1743  05D6  3066               	movlw	102
  1744  05D7  00F0               	movwf	??_main
  1745  05D8                     u747:	
  1746  05D8  0BF0               	decfsz	??_main,f
  1747  05D9  2DD8               	goto	u747
  1748  05DA  0BF1               	decfsz	??_main+1,f
  1749  05DB  2DD8               	goto	u747
  1750  05DC  0BF2               	decfsz	??_main+2,f
  1751  05DD  2DD8               	goto	u747
  1752  05DE  2DDF               	nop2
  1753                           
  1754                           ;my t4 c.c: 184: PORTB = 0b00000000;
  1755  05DF  1283               	bcf	3,5	;RP0=0, select bank0
  1756  05E0  1303               	bcf	3,6	;RP1=0, select bank0
  1757  05E1  0186               	clrf	6	;volatile
  1758                           
  1759                           ;my t4 c.c: 185: _delay((unsigned long)((1000)*(8000000/4000.0)));
  1760  05E2  300B               	movlw	11
  1761  05E3  00F2               	movwf	??_main+2
  1762  05E4  3026               	movlw	38
  1763  05E5  00F1               	movwf	??_main+1
  1764  05E6  3066               	movlw	102
  1765  05E7  00F0               	movwf	??_main
  1766  05E8                     u757:	
  1767  05E8  0BF0               	decfsz	??_main,f
  1768  05E9  2DE8               	goto	u757
  1769  05EA  0BF1               	decfsz	??_main+1,f
  1770  05EB  2DE8               	goto	u757
  1771  05EC  0BF2               	decfsz	??_main+2,f
  1772  05ED  2DE8               	goto	u757
  1773  05EE  2DEF               	nop2
  1774                           
  1775                           ;my t4 c.c: 186: PORTB = 0b11111111;
  1776  05EF  30FF               	movlw	255
  1777  05F0  1283               	bcf	3,5	;RP0=0, select bank0
  1778  05F1  1303               	bcf	3,6	;RP1=0, select bank0
  1779  05F2  0086               	movwf	6	;volatile
  1780                           
  1781                           ;my t4 c.c: 187: _delay((unsigned long)((1000)*(8000000/4000.0)));
  1782  05F3  300B               	movlw	11
  1783  05F4  00F2               	movwf	??_main+2
  1784  05F5  3026               	movlw	38
  1785  05F6  00F1               	movwf	??_main+1
  1786  05F7  3066               	movlw	102
  1787  05F8  00F0               	movwf	??_main
  1788  05F9                     u767:	
  1789  05F9  0BF0               	decfsz	??_main,f
  1790  05FA  2DF9               	goto	u767
  1791  05FB  0BF1               	decfsz	??_main+1,f
  1792  05FC  2DF9               	goto	u767
  1793  05FD  0BF2               	decfsz	??_main+2,f
  1794  05FE  2DF9               	goto	u767
  1795  05FF  2E00               	nop2
  1796                           
  1797                           ;my t4 c.c: 188: PORTB = 0b01111111;
  1798  0600  307F               	movlw	127
  1799  0601  1283               	bcf	3,5	;RP0=0, select bank0
  1800  0602  1303               	bcf	3,6	;RP1=0, select bank0
  1801  0603  0086               	movwf	6	;volatile
  1802                           
  1803                           ;my t4 c.c: 189: _delay((unsigned long)((1000)*(8000000/4000.0)));
  1804  0604  300B               	movlw	11
  1805  0605  00F2               	movwf	??_main+2
  1806  0606  3026               	movlw	38
  1807  0607  00F1               	movwf	??_main+1
  1808  0608  3066               	movlw	102
  1809  0609  00F0               	movwf	??_main
  1810  060A                     u777:	
  1811  060A  0BF0               	decfsz	??_main,f
  1812  060B  2E0A               	goto	u777
  1813  060C  0BF1               	decfsz	??_main+1,f
  1814  060D  2E0A               	goto	u777
  1815  060E  0BF2               	decfsz	??_main+2,f
  1816  060F  2E0A               	goto	u777
  1817  0610  2E11               	nop2
  1818                           
  1819                           ;my t4 c.c: 190: PORTB = 0b10111111;
  1820  0611  30BF               	movlw	191
  1821  0612  1283               	bcf	3,5	;RP0=0, select bank0
  1822  0613  1303               	bcf	3,6	;RP1=0, select bank0
  1823  0614  0086               	movwf	6	;volatile
  1824                           
  1825                           ;my t4 c.c: 191: _delay((unsigned long)((1000)*(8000000/4000.0)));
  1826  0615  300B               	movlw	11
  1827  0616  00F2               	movwf	??_main+2
  1828  0617  3026               	movlw	38
  1829  0618  00F1               	movwf	??_main+1
  1830  0619  3066               	movlw	102
  1831  061A  00F0               	movwf	??_main
  1832  061B                     u787:	
  1833  061B  0BF0               	decfsz	??_main,f
  1834  061C  2E1B               	goto	u787
  1835  061D  0BF1               	decfsz	??_main+1,f
  1836  061E  2E1B               	goto	u787
  1837  061F  0BF2               	decfsz	??_main+2,f
  1838  0620  2E1B               	goto	u787
  1839  0621  2E22               	nop2
  1840                           
  1841                           ;my t4 c.c: 192: PORTB = 0b11011111;
  1842  0622  30DF               	movlw	223
  1843  0623  1283               	bcf	3,5	;RP0=0, select bank0
  1844  0624  1303               	bcf	3,6	;RP1=0, select bank0
  1845  0625  0086               	movwf	6	;volatile
  1846                           
  1847                           ;my t4 c.c: 193: _delay((unsigned long)((1000)*(8000000/4000.0)));
  1848  0626  300B               	movlw	11
  1849  0627  00F2               	movwf	??_main+2
  1850  0628  3026               	movlw	38
  1851  0629  00F1               	movwf	??_main+1
  1852  062A  3066               	movlw	102
  1853  062B  00F0               	movwf	??_main
  1854  062C                     u797:	
  1855  062C  0BF0               	decfsz	??_main,f
  1856  062D  2E2C               	goto	u797
  1857  062E  0BF1               	decfsz	??_main+1,f
  1858  062F  2E2C               	goto	u797
  1859  0630  0BF2               	decfsz	??_main+2,f
  1860  0631  2E2C               	goto	u797
  1861  0632  2E33               	nop2
  1862                           
  1863                           ;my t4 c.c: 194: PORTB = 0b11101111;
  1864  0633  30EF               	movlw	239
  1865  0634  1283               	bcf	3,5	;RP0=0, select bank0
  1866  0635  1303               	bcf	3,6	;RP1=0, select bank0
  1867  0636  0086               	movwf	6	;volatile
  1868                           
  1869                           ;my t4 c.c: 195: _delay((unsigned long)((1000)*(8000000/4000.0)));
  1870  0637  300B               	movlw	11
  1871  0638  00F2               	movwf	??_main+2
  1872  0639  3026               	movlw	38
  1873  063A  00F1               	movwf	??_main+1
  1874  063B  3066               	movlw	102
  1875  063C  00F0               	movwf	??_main
  1876  063D                     u807:	
  1877  063D  0BF0               	decfsz	??_main,f
  1878  063E  2E3D               	goto	u807
  1879  063F  0BF1               	decfsz	??_main+1,f
  1880  0640  2E3D               	goto	u807
  1881  0641  0BF2               	decfsz	??_main+2,f
  1882  0642  2E3D               	goto	u807
  1883  0643  2E44               	nop2
  1884                           
  1885                           ;my t4 c.c: 196: PORTB = 0b11110111;
  1886  0644  30F7               	movlw	247
  1887  0645  1283               	bcf	3,5	;RP0=0, select bank0
  1888  0646  1303               	bcf	3,6	;RP1=0, select bank0
  1889  0647  0086               	movwf	6	;volatile
  1890                           
  1891                           ;my t4 c.c: 197: _delay((unsigned long)((1000)*(8000000/4000.0)));
  1892  0648  300B               	movlw	11
  1893  0649  00F2               	movwf	??_main+2
  1894  064A  3026               	movlw	38
  1895  064B  00F1               	movwf	??_main+1
  1896  064C  3066               	movlw	102
  1897  064D  00F0               	movwf	??_main
  1898  064E                     u817:	
  1899  064E  0BF0               	decfsz	??_main,f
  1900  064F  2E4E               	goto	u817
  1901  0650  0BF1               	decfsz	??_main+1,f
  1902  0651  2E4E               	goto	u817
  1903  0652  0BF2               	decfsz	??_main+2,f
  1904  0653  2E4E               	goto	u817
  1905  0654  2E55               	nop2
  1906                           
  1907                           ;my t4 c.c: 198: PORTB = 0b11111011;
  1908  0655  30FB               	movlw	251
  1909  0656  1283               	bcf	3,5	;RP0=0, select bank0
  1910  0657  1303               	bcf	3,6	;RP1=0, select bank0
  1911  0658  0086               	movwf	6	;volatile
  1912                           
  1913                           ;my t4 c.c: 199: _delay((unsigned long)((1000)*(8000000/4000.0)));
  1914  0659  300B               	movlw	11
  1915  065A  00F2               	movwf	??_main+2
  1916  065B  3026               	movlw	38
  1917  065C  00F1               	movwf	??_main+1
  1918  065D  3066               	movlw	102
  1919  065E  00F0               	movwf	??_main
  1920  065F                     u827:	
  1921  065F  0BF0               	decfsz	??_main,f
  1922  0660  2E5F               	goto	u827
  1923  0661  0BF1               	decfsz	??_main+1,f
  1924  0662  2E5F               	goto	u827
  1925  0663  0BF2               	decfsz	??_main+2,f
  1926  0664  2E5F               	goto	u827
  1927  0665  2E66               	nop2
  1928                           
  1929                           ;my t4 c.c: 200: PORTB = 0b11111101;
  1930  0666  30FD               	movlw	253
  1931  0667  1283               	bcf	3,5	;RP0=0, select bank0
  1932  0668  1303               	bcf	3,6	;RP1=0, select bank0
  1933  0669  0086               	movwf	6	;volatile
  1934                           
  1935                           ;my t4 c.c: 201: _delay((unsigned long)((1000)*(8000000/4000.0)));
  1936  066A  300B               	movlw	11
  1937  066B  00F2               	movwf	??_main+2
  1938  066C  3026               	movlw	38
  1939  066D  00F1               	movwf	??_main+1
  1940  066E  3066               	movlw	102
  1941  066F  00F0               	movwf	??_main
  1942  0670                     u837:	
  1943  0670  0BF0               	decfsz	??_main,f
  1944  0671  2E70               	goto	u837
  1945  0672  0BF1               	decfsz	??_main+1,f
  1946  0673  2E70               	goto	u837
  1947  0674  0BF2               	decfsz	??_main+2,f
  1948  0675  2E70               	goto	u837
  1949  0676  2E77               	nop2
  1950                           
  1951                           ;my t4 c.c: 202: PORTB = 0b11111110;
  1952  0677  30FE               	movlw	254
  1953  0678  1283               	bcf	3,5	;RP0=0, select bank0
  1954  0679  1303               	bcf	3,6	;RP1=0, select bank0
  1955  067A  0086               	movwf	6	;volatile
  1956                           
  1957                           ;my t4 c.c: 203: _delay((unsigned long)((1000)*(8000000/4000.0)));
  1958  067B  300B               	movlw	11
  1959  067C  00F2               	movwf	??_main+2
  1960  067D  3026               	movlw	38
  1961  067E  00F1               	movwf	??_main+1
  1962  067F  3066               	movlw	102
  1963  0680  00F0               	movwf	??_main
  1964  0681                     u847:	
  1965  0681  0BF0               	decfsz	??_main,f
  1966  0682  2E81               	goto	u847
  1967  0683  0BF1               	decfsz	??_main+1,f
  1968  0684  2E81               	goto	u847
  1969  0685  0BF2               	decfsz	??_main+2,f
  1970  0686  2E81               	goto	u847
  1971  0687  2E88               	nop2
  1972                           
  1973                           ;my t4 c.c: 204: PORTB = 0b11111111;
  1974  0688  30FF               	movlw	255
  1975  0689  1283               	bcf	3,5	;RP0=0, select bank0
  1976  068A  1303               	bcf	3,6	;RP1=0, select bank0
  1977  068B  0086               	movwf	6	;volatile
  1978                           
  1979                           ;my t4 c.c: 205: _delay((unsigned long)((1000)*(8000000/4000.0)));
  1980  068C  300B               	movlw	11
  1981  068D  00F2               	movwf	??_main+2
  1982  068E  3026               	movlw	38
  1983  068F  00F1               	movwf	??_main+1
  1984  0690  3066               	movlw	102
  1985  0691  00F0               	movwf	??_main
  1986  0692                     u857:	
  1987  0692  0BF0               	decfsz	??_main,f
  1988  0693  2E92               	goto	u857
  1989  0694  0BF1               	decfsz	??_main+1,f
  1990  0695  2E92               	goto	u857
  1991  0696  0BF2               	decfsz	??_main+2,f
  1992  0697  2E92               	goto	u857
  1993  0698  2E99               	nop2
  1994                           
  1995                           ;my t4 c.c: 206: PORTB = 0b01111111;
  1996  0699  307F               	movlw	127
  1997  069A  1283               	bcf	3,5	;RP0=0, select bank0
  1998  069B  1303               	bcf	3,6	;RP1=0, select bank0
  1999  069C  0086               	movwf	6	;volatile
  2000                           
  2001                           ;my t4 c.c: 207: _delay((unsigned long)((1000)*(8000000/4000.0)));
  2002  069D  300B               	movlw	11
  2003  069E  00F2               	movwf	??_main+2
  2004  069F  3026               	movlw	38
  2005  06A0  00F1               	movwf	??_main+1
  2006  06A1  3066               	movlw	102
  2007  06A2  00F0               	movwf	??_main
  2008  06A3                     u867:	
  2009  06A3  0BF0               	decfsz	??_main,f
  2010  06A4  2EA3               	goto	u867
  2011  06A5  0BF1               	decfsz	??_main+1,f
  2012  06A6  2EA3               	goto	u867
  2013  06A7  0BF2               	decfsz	??_main+2,f
  2014  06A8  2EA3               	goto	u867
  2015  06A9  2EAA               	nop2
  2016                           
  2017                           ;my t4 c.c: 208: PORTB = 0b10111111;
  2018  06AA  30BF               	movlw	191
  2019  06AB  1283               	bcf	3,5	;RP0=0, select bank0
  2020  06AC  1303               	bcf	3,6	;RP1=0, select bank0
  2021  06AD  0086               	movwf	6	;volatile
  2022                           
  2023                           ;my t4 c.c: 209: _delay((unsigned long)((1000)*(8000000/4000.0)));
  2024  06AE  300B               	movlw	11
  2025  06AF  00F2               	movwf	??_main+2
  2026  06B0  3026               	movlw	38
  2027  06B1  00F1               	movwf	??_main+1
  2028  06B2  3066               	movlw	102
  2029  06B3  00F0               	movwf	??_main
  2030  06B4                     u877:	
  2031  06B4  0BF0               	decfsz	??_main,f
  2032  06B5  2EB4               	goto	u877
  2033  06B6  0BF1               	decfsz	??_main+1,f
  2034  06B7  2EB4               	goto	u877
  2035  06B8  0BF2               	decfsz	??_main+2,f
  2036  06B9  2EB4               	goto	u877
  2037  06BA  2EBB               	nop2
  2038                           
  2039                           ;my t4 c.c: 210: PORTB = 0b11011111;
  2040  06BB  30DF               	movlw	223
  2041  06BC  1283               	bcf	3,5	;RP0=0, select bank0
  2042  06BD  1303               	bcf	3,6	;RP1=0, select bank0
  2043  06BE  0086               	movwf	6	;volatile
  2044                           
  2045                           ;my t4 c.c: 211: _delay((unsigned long)((1000)*(8000000/4000.0)));
  2046  06BF  300B               	movlw	11
  2047  06C0  00F2               	movwf	??_main+2
  2048  06C1  3026               	movlw	38
  2049  06C2  00F1               	movwf	??_main+1
  2050  06C3  3066               	movlw	102
  2051  06C4  00F0               	movwf	??_main
  2052  06C5                     u887:	
  2053  06C5  0BF0               	decfsz	??_main,f
  2054  06C6  2EC5               	goto	u887
  2055  06C7  0BF1               	decfsz	??_main+1,f
  2056  06C8  2EC5               	goto	u887
  2057  06C9  0BF2               	decfsz	??_main+2,f
  2058  06CA  2EC5               	goto	u887
  2059  06CB  2ECC               	nop2
  2060                           
  2061                           ;my t4 c.c: 212: PORTB = 0b11101111;
  2062  06CC  30EF               	movlw	239
  2063  06CD  1283               	bcf	3,5	;RP0=0, select bank0
  2064  06CE  1303               	bcf	3,6	;RP1=0, select bank0
  2065  06CF  0086               	movwf	6	;volatile
  2066                           
  2067                           ;my t4 c.c: 213: _delay((unsigned long)((1000)*(8000000/4000.0)));
  2068  06D0  300B               	movlw	11
  2069  06D1  00F2               	movwf	??_main+2
  2070  06D2  3026               	movlw	38
  2071  06D3  00F1               	movwf	??_main+1
  2072  06D4  3066               	movlw	102
  2073  06D5  00F0               	movwf	??_main
  2074  06D6                     u897:	
  2075  06D6  0BF0               	decfsz	??_main,f
  2076  06D7  2ED6               	goto	u897
  2077  06D8  0BF1               	decfsz	??_main+1,f
  2078  06D9  2ED6               	goto	u897
  2079  06DA  0BF2               	decfsz	??_main+2,f
  2080  06DB  2ED6               	goto	u897
  2081  06DC  2EDD               	nop2
  2082                           
  2083                           ;my t4 c.c: 214: PORTB = 0b11110111;
  2084  06DD  30F7               	movlw	247
  2085  06DE  1283               	bcf	3,5	;RP0=0, select bank0
  2086  06DF  1303               	bcf	3,6	;RP1=0, select bank0
  2087  06E0  0086               	movwf	6	;volatile
  2088                           
  2089                           ;my t4 c.c: 215: _delay((unsigned long)((1000)*(8000000/4000.0)));
  2090  06E1  300B               	movlw	11
  2091  06E2  00F2               	movwf	??_main+2
  2092  06E3  3026               	movlw	38
  2093  06E4  00F1               	movwf	??_main+1
  2094  06E5  3066               	movlw	102
  2095  06E6  00F0               	movwf	??_main
  2096  06E7                     u907:	
  2097  06E7  0BF0               	decfsz	??_main,f
  2098  06E8  2EE7               	goto	u907
  2099  06E9  0BF1               	decfsz	??_main+1,f
  2100  06EA  2EE7               	goto	u907
  2101  06EB  0BF2               	decfsz	??_main+2,f
  2102  06EC  2EE7               	goto	u907
  2103  06ED  2EEE               	nop2
  2104                           
  2105                           ;my t4 c.c: 216: PORTB = 0b11111011;
  2106  06EE  30FB               	movlw	251
  2107  06EF  1283               	bcf	3,5	;RP0=0, select bank0
  2108  06F0  1303               	bcf	3,6	;RP1=0, select bank0
  2109  06F1  0086               	movwf	6	;volatile
  2110                           
  2111                           ;my t4 c.c: 217: _delay((unsigned long)((1000)*(8000000/4000.0)));
  2112  06F2  300B               	movlw	11
  2113  06F3  00F2               	movwf	??_main+2
  2114  06F4  3026               	movlw	38
  2115  06F5  00F1               	movwf	??_main+1
  2116  06F6  3066               	movlw	102
  2117  06F7  00F0               	movwf	??_main
  2118  06F8                     u917:	
  2119  06F8  0BF0               	decfsz	??_main,f
  2120  06F9  2EF8               	goto	u917
  2121  06FA  0BF1               	decfsz	??_main+1,f
  2122  06FB  2EF8               	goto	u917
  2123  06FC  0BF2               	decfsz	??_main+2,f
  2124  06FD  2EF8               	goto	u917
  2125  06FE  2EFF               	nop2
  2126                           
  2127                           ;my t4 c.c: 218: PORTB = 0b11111101;
  2128  06FF  30FD               	movlw	253
  2129  0700  1283               	bcf	3,5	;RP0=0, select bank0
  2130  0701  1303               	bcf	3,6	;RP1=0, select bank0
  2131  0702  0086               	movwf	6	;volatile
  2132                           
  2133                           ;my t4 c.c: 219: _delay((unsigned long)((1000)*(8000000/4000.0)));
  2134  0703  300B               	movlw	11
  2135  0704  00F2               	movwf	??_main+2
  2136  0705  3026               	movlw	38
  2137  0706  00F1               	movwf	??_main+1
  2138  0707  3066               	movlw	102
  2139  0708  00F0               	movwf	??_main
  2140  0709                     u927:	
  2141  0709  0BF0               	decfsz	??_main,f
  2142  070A  2F09               	goto	u927
  2143  070B  0BF1               	decfsz	??_main+1,f
  2144  070C  2F09               	goto	u927
  2145  070D  0BF2               	decfsz	??_main+2,f
  2146  070E  2F09               	goto	u927
  2147  070F  2F10               	nop2
  2148                           
  2149                           ;my t4 c.c: 220: PORTB = 0b11111110;
  2150  0710  30FE               	movlw	254
  2151  0711  1283               	bcf	3,5	;RP0=0, select bank0
  2152  0712  1303               	bcf	3,6	;RP1=0, select bank0
  2153  0713  0086               	movwf	6	;volatile
  2154                           
  2155                           ;my t4 c.c: 221: _delay((unsigned long)((1000)*(8000000/4000.0)));
  2156  0714  300B               	movlw	11
  2157  0715  00F2               	movwf	??_main+2
  2158  0716  3026               	movlw	38
  2159  0717  00F1               	movwf	??_main+1
  2160  0718  3066               	movlw	102
  2161  0719  00F0               	movwf	??_main
  2162  071A                     u937:	
  2163  071A  0BF0               	decfsz	??_main,f
  2164  071B  2F1A               	goto	u937
  2165  071C  0BF1               	decfsz	??_main+1,f
  2166  071D  2F1A               	goto	u937
  2167  071E  0BF2               	decfsz	??_main+2,f
  2168  071F  2F1A               	goto	u937
  2169  0720  2F21               	nop2
  2170                           
  2171                           ;my t4 c.c: 222: PORTB = 0b11111111;
  2172  0721  30FF               	movlw	255
  2173  0722  1283               	bcf	3,5	;RP0=0, select bank0
  2174  0723  1303               	bcf	3,6	;RP1=0, select bank0
  2175  0724  0086               	movwf	6	;volatile
  2176                           
  2177                           ;my t4 c.c: 223: _delay((unsigned long)((1000)*(8000000/4000.0)));
  2178  0725  300B               	movlw	11
  2179  0726  00F2               	movwf	??_main+2
  2180  0727  3026               	movlw	38
  2181  0728  00F1               	movwf	??_main+1
  2182  0729  3066               	movlw	102
  2183  072A  00F0               	movwf	??_main
  2184  072B                     u947:	
  2185  072B  0BF0               	decfsz	??_main,f
  2186  072C  2F2B               	goto	u947
  2187  072D  0BF1               	decfsz	??_main+1,f
  2188  072E  2F2B               	goto	u947
  2189  072F  0BF2               	decfsz	??_main+2,f
  2190  0730  2F2B               	goto	u947
  2191  0731  2F32               	nop2
  2192                           
  2193                           ;my t4 c.c: 224: PORTB = 0b01111110;
  2194  0732  307E               	movlw	126
  2195  0733  1283               	bcf	3,5	;RP0=0, select bank0
  2196  0734  1303               	bcf	3,6	;RP1=0, select bank0
  2197  0735  0086               	movwf	6	;volatile
  2198                           
  2199                           ;my t4 c.c: 225: _delay((unsigned long)((1000)*(8000000/4000.0)));
  2200  0736  300B               	movlw	11
  2201  0737  00F2               	movwf	??_main+2
  2202  0738  3026               	movlw	38
  2203  0739  00F1               	movwf	??_main+1
  2204  073A  3066               	movlw	102
  2205  073B  00F0               	movwf	??_main
  2206  073C                     u957:	
  2207  073C  0BF0               	decfsz	??_main,f
  2208  073D  2F3C               	goto	u957
  2209  073E  0BF1               	decfsz	??_main+1,f
  2210  073F  2F3C               	goto	u957
  2211  0740  0BF2               	decfsz	??_main+2,f
  2212  0741  2F3C               	goto	u957
  2213  0742  2F43               	nop2
  2214                           
  2215                           ;my t4 c.c: 226: PORTB = 0b00111100;
  2216  0743  303C               	movlw	60
  2217  0744  1283               	bcf	3,5	;RP0=0, select bank0
  2218  0745  1303               	bcf	3,6	;RP1=0, select bank0
  2219  0746  0086               	movwf	6	;volatile
  2220                           
  2221                           ;my t4 c.c: 227: _delay((unsigned long)((1000)*(8000000/4000.0)));
  2222  0747  300B               	movlw	11
  2223  0748  00F2               	movwf	??_main+2
  2224  0749  3026               	movlw	38
  2225  074A  00F1               	movwf	??_main+1
  2226  074B  3066               	movlw	102
  2227  074C  00F0               	movwf	??_main
  2228  074D                     u967:	
  2229  074D  0BF0               	decfsz	??_main,f
  2230  074E  2F4D               	goto	u967
  2231  074F  0BF1               	decfsz	??_main+1,f
  2232  0750  2F4D               	goto	u967
  2233  0751  0BF2               	decfsz	??_main+2,f
  2234  0752  2F4D               	goto	u967
  2235  0753  2F54               	nop2
  2236                           
  2237                           ;my t4 c.c: 228: PORTB = 0b00011000;
  2238  0754  3018               	movlw	24
  2239  0755  1283               	bcf	3,5	;RP0=0, select bank0
  2240  0756  1303               	bcf	3,6	;RP1=0, select bank0
  2241  0757  0086               	movwf	6	;volatile
  2242                           
  2243                           ;my t4 c.c: 229: _delay((unsigned long)((1000)*(8000000/4000.0)));
  2244  0758  300B               	movlw	11
  2245  0759  00F2               	movwf	??_main+2
  2246  075A  3026               	movlw	38
  2247  075B  00F1               	movwf	??_main+1
  2248  075C  3066               	movlw	102
  2249  075D  00F0               	movwf	??_main
  2250  075E                     u977:	
  2251  075E  0BF0               	decfsz	??_main,f
  2252  075F  2F5E               	goto	u977
  2253  0760  0BF1               	decfsz	??_main+1,f
  2254  0761  2F5E               	goto	u977
  2255  0762  0BF2               	decfsz	??_main+2,f
  2256  0763  2F5E               	goto	u977
  2257  0764  2F65               	nop2
  2258                           
  2259                           ;my t4 c.c: 230: PORTB = 0b00000000;
  2260  0765  1283               	bcf	3,5	;RP0=0, select bank0
  2261  0766  1303               	bcf	3,6	;RP1=0, select bank0
  2262  0767  0186               	clrf	6	;volatile
  2263                           
  2264                           ;my t4 c.c: 231: _delay((unsigned long)((1000)*(8000000/4000.0)));
  2265  0768  300B               	movlw	11
  2266  0769  00F2               	movwf	??_main+2
  2267  076A  3026               	movlw	38
  2268  076B  00F1               	movwf	??_main+1
  2269  076C  3066               	movlw	102
  2270  076D  00F0               	movwf	??_main
  2271  076E                     u987:	
  2272  076E  0BF0               	decfsz	??_main,f
  2273  076F  2F6E               	goto	u987
  2274  0770  0BF1               	decfsz	??_main+1,f
  2275  0771  2F6E               	goto	u987
  2276  0772  0BF2               	decfsz	??_main+2,f
  2277  0773  2F6E               	goto	u987
  2278  0774  2F75               	nop2
  2279                           
  2280                           ;my t4 c.c: 232: PORTB = 0b00011000;
  2281  0775  3018               	movlw	24
  2282  0776  1283               	bcf	3,5	;RP0=0, select bank0
  2283  0777  1303               	bcf	3,6	;RP1=0, select bank0
  2284  0778  0086               	movwf	6	;volatile
  2285                           
  2286                           ;my t4 c.c: 233: _delay((unsigned long)((1000)*(8000000/4000.0)));
  2287  0779  300B               	movlw	11
  2288  077A  00F2               	movwf	??_main+2
  2289  077B  3026               	movlw	38
  2290  077C  00F1               	movwf	??_main+1
  2291  077D  3066               	movlw	102
  2292  077E  00F0               	movwf	??_main
  2293  077F                     u997:	
  2294  077F  0BF0               	decfsz	??_main,f
  2295  0780  2F7F               	goto	u997
  2296  0781  0BF1               	decfsz	??_main+1,f
  2297  0782  2F7F               	goto	u997
  2298  0783  0BF2               	decfsz	??_main+2,f
  2299  0784  2F7F               	goto	u997
  2300  0785  2F86               	nop2
  2301                           
  2302                           ;my t4 c.c: 234: PORTB = 0b00111100;
  2303  0786  303C               	movlw	60
  2304  0787  1283               	bcf	3,5	;RP0=0, select bank0
  2305  0788  1303               	bcf	3,6	;RP1=0, select bank0
  2306  0789  0086               	movwf	6	;volatile
  2307                           
  2308                           ;my t4 c.c: 235: _delay((unsigned long)((1000)*(8000000/4000.0)));
  2309  078A  300B               	movlw	11
  2310  078B  00F2               	movwf	??_main+2
  2311  078C  3026               	movlw	38
  2312  078D  00F1               	movwf	??_main+1
  2313  078E  3066               	movlw	102
  2314  078F  00F0               	movwf	??_main
  2315  0790                     u1007:	
  2316  0790  0BF0               	decfsz	??_main,f
  2317  0791  2F90               	goto	u1007
  2318  0792  0BF1               	decfsz	??_main+1,f
  2319  0793  2F90               	goto	u1007
  2320  0794  0BF2               	decfsz	??_main+2,f
  2321  0795  2F90               	goto	u1007
  2322  0796  2F97               	nop2
  2323                           
  2324                           ;my t4 c.c: 236: PORTB = 0b01111110;
  2325  0797  307E               	movlw	126
  2326  0798  1283               	bcf	3,5	;RP0=0, select bank0
  2327  0799  1303               	bcf	3,6	;RP1=0, select bank0
  2328  079A  0086               	movwf	6	;volatile
  2329                           
  2330                           ;my t4 c.c: 237: _delay((unsigned long)((1000)*(8000000/4000.0)));
  2331  079B  300B               	movlw	11
  2332  079C  00F2               	movwf	??_main+2
  2333  079D  3026               	movlw	38
  2334  079E  00F1               	movwf	??_main+1
  2335  079F  3066               	movlw	102
  2336  07A0  00F0               	movwf	??_main
  2337  07A1                     u1017:	
  2338  07A1  0BF0               	decfsz	??_main,f
  2339  07A2  2FA1               	goto	u1017
  2340  07A3  0BF1               	decfsz	??_main+1,f
  2341  07A4  2FA1               	goto	u1017
  2342  07A5  0BF2               	decfsz	??_main+2,f
  2343  07A6  2FA1               	goto	u1017
  2344  07A7  2FA8               	nop2
  2345                           
  2346                           ;my t4 c.c: 238: PORTB = 0b11111111;
  2347  07A8  30FF               	movlw	255
  2348  07A9  1283               	bcf	3,5	;RP0=0, select bank0
  2349  07AA  1303               	bcf	3,6	;RP1=0, select bank0
  2350  07AB  0086               	movwf	6	;volatile
  2351                           
  2352                           ;my t4 c.c: 239: _delay((unsigned long)((1000)*(8000000/4000.0)));
  2353  07AC  300B               	movlw	11
  2354  07AD  00F2               	movwf	??_main+2
  2355  07AE  3026               	movlw	38
  2356  07AF  00F1               	movwf	??_main+1
  2357  07B0  3066               	movlw	102
  2358  07B1  00F0               	movwf	??_main
  2359  07B2                     u1027:	
  2360  07B2  0BF0               	decfsz	??_main,f
  2361  07B3  2FB2               	goto	u1027
  2362  07B4  0BF1               	decfsz	??_main+1,f
  2363  07B5  2FB2               	goto	u1027
  2364  07B6  0BF2               	decfsz	??_main+2,f
  2365  07B7  2FB2               	goto	u1027
  2366  07B8  2FB9               	nop2
  2367                           
  2368                           ;my t4 c.c: 240: PORTB = 0b11111111;
  2369  07B9  30FF               	movlw	255
  2370  07BA  1283               	bcf	3,5	;RP0=0, select bank0
  2371  07BB  1303               	bcf	3,6	;RP1=0, select bank0
  2372  07BC  0086               	movwf	6	;volatile
  2373                           
  2374                           ;my t4 c.c: 241: _delay((unsigned long)((1000)*(8000000/4000.0)));
  2375  07BD  300B               	movlw	11
  2376  07BE  00F2               	movwf	??_main+2
  2377  07BF  3026               	movlw	38
  2378  07C0  00F1               	movwf	??_main+1
  2379  07C1  3066               	movlw	102
  2380  07C2  00F0               	movwf	??_main
  2381  07C3                     u1037:	
  2382  07C3  0BF0               	decfsz	??_main,f
  2383  07C4  2FC3               	goto	u1037
  2384  07C5  0BF1               	decfsz	??_main+1,f
  2385  07C6  2FC3               	goto	u1037
  2386  07C7  0BF2               	decfsz	??_main+2,f
  2387  07C8  2FC3               	goto	u1037
  2388  07C9  2FCA               	nop2
  2389                           
  2390                           ;my t4 c.c: 242: PORTB = 0b01111110;
  2391  07CA  307E               	movlw	126
  2392  07CB  1283               	bcf	3,5	;RP0=0, select bank0
  2393  07CC  1303               	bcf	3,6	;RP1=0, select bank0
  2394  07CD  0086               	movwf	6	;volatile
  2395                           
  2396                           ;my t4 c.c: 243: _delay((unsigned long)((1000)*(8000000/4000.0)));
  2397  07CE  300B               	movlw	11
  2398  07CF  00F2               	movwf	??_main+2
  2399  07D0  3026               	movlw	38
  2400  07D1  00F1               	movwf	??_main+1
  2401  07D2  3066               	movlw	102
  2402  07D3  00F0               	movwf	??_main
  2403  07D4                     u1047:	
  2404  07D4  0BF0               	decfsz	??_main,f
  2405  07D5  2FD4               	goto	u1047
  2406  07D6  0BF1               	decfsz	??_main+1,f
  2407  07D7  2FD4               	goto	u1047
  2408  07D8  0BF2               	decfsz	??_main+2,f
  2409  07D9  2FD4               	goto	u1047
  2410  07DA  2FDB               	nop2
  2411                           
  2412                           ;my t4 c.c: 244: PORTB = 0b00111100;
  2413  07DB  303C               	movlw	60
  2414  07DC  1283               	bcf	3,5	;RP0=0, select bank0
  2415  07DD  1303               	bcf	3,6	;RP1=0, select bank0
  2416  07DE  0086               	movwf	6	;volatile
  2417                           
  2418                           ;my t4 c.c: 245: _delay((unsigned long)((1000)*(8000000/4000.0)));
  2419  07DF  300B               	movlw	11
  2420  07E0  00F2               	movwf	??_main+2
  2421  07E1  3026               	movlw	38
  2422  07E2  00F1               	movwf	??_main+1
  2423  07E3  3066               	movlw	102
  2424  07E4  00F0               	movwf	??_main
  2425  07E5                     u1057:	
  2426  07E5  0BF0               	decfsz	??_main,f
  2427  07E6  2FE5               	goto	u1057
  2428  07E7  0BF1               	decfsz	??_main+1,f
  2429  07E8  2FE5               	goto	u1057
  2430  07E9  0BF2               	decfsz	??_main+2,f
  2431  07EA  2FE5               	goto	u1057
  2432  07EB  2FEC               	nop2
  2433                           
  2434                           ;my t4 c.c: 246: PORTB = 0b00011000;
  2435  07EC  3018               	movlw	24
  2436  07ED  1283               	bcf	3,5	;RP0=0, select bank0
  2437  07EE  1303               	bcf	3,6	;RP1=0, select bank0
  2438  07EF  0086               	movwf	6	;volatile
  2439                           
  2440                           ;my t4 c.c: 247: _delay((unsigned long)((1000)*(8000000/4000.0)));
  2441  07F0  300B               	movlw	11
  2442  07F1  00F2               	movwf	??_main+2
  2443  07F2  3026               	movlw	38
  2444  07F3  00F1               	movwf	??_main+1
  2445  07F4  3066               	movlw	102
  2446  07F5  00F0               	movwf	??_main
  2447  07F6                     u1067:	
  2448  07F6  0BF0               	decfsz	??_main,f
  2449  07F7  2FF6               	goto	u1067
  2450  07F8  0BF1               	decfsz	??_main+1,f
  2451  07F9  2FF6               	goto	u1067
  2452  07FA  0BF2               	decfsz	??_main+2,f
  2453  07FB  2FF6               	goto	u1067
  2454  07FC  2FFD               	nop2
  2455  07FD  120A  158A  2EAC   	goto	L1
  2456                           
  2457                           	psect	cinit
  2458  00F4                     start_initialization:	
  2459  00F4                     end_of_initialization:	
  2460                           ;End of C runtime variable initialization code
  2461                           
  2462  00F4  0183               	clrf	3
  2463  00F5  120A  118A  28F8   	ljmp	_main	;jump to C main() function
  2464                           
  2465                           	psect	cstackCOMMON
  2466  0070                     __pcstackCOMMON:	
  2467  0070                     ?_main:	
  2468  0070                     ??_main:	
  2469                           ; 0 bytes @ 0x0
  2470                           
  2471                           
  2472                           ; 0 bytes @ 0x0
  2473  0070                     	ds	3
  2474                           
  2475                           	psect	maintext_split_1
  2476  0EAC                     L1:	
  2477                           
  2478                           ;my t4 c.c: 248: PORTB = 0b00000000;
  2479  0EAC  1283               	bcf	3,5	;RP0=0, select bank0
  2480  0EAD  1303               	bcf	3,6	;RP1=0, select bank0
  2481  0EAE  0186               	clrf	6	;volatile
  2482                           
  2483                           ;my t4 c.c: 249: _delay((unsigned long)((1000)*(8000000/4000.0)));
  2484  0EAF  300B               	movlw	11
  2485  0EB0  00F2               	movwf	??_main+2
  2486  0EB1  3026               	movlw	38
  2487  0EB2  00F1               	movwf	??_main+1
  2488  0EB3  3066               	movlw	102
  2489  0EB4  00F0               	movwf	??_main
  2490  0EB5                     u1077:	
  2491  0EB5  0BF0               	decfsz	??_main,f
  2492  0EB6  2EB5               	goto	u1077
  2493  0EB7  0BF1               	decfsz	??_main+1,f
  2494  0EB8  2EB5               	goto	u1077
  2495  0EB9  0BF2               	decfsz	??_main+2,f
  2496  0EBA  2EB5               	goto	u1077
  2497  0EBB  2EBC               	nop2
  2498                           
  2499                           ;my t4 c.c: 250: PORTB = 0b00011000;
  2500  0EBC  3018               	movlw	24
  2501  0EBD  1283               	bcf	3,5	;RP0=0, select bank0
  2502  0EBE  1303               	bcf	3,6	;RP1=0, select bank0
  2503  0EBF  0086               	movwf	6	;volatile
  2504                           
  2505                           ;my t4 c.c: 251: _delay((unsigned long)((1000)*(8000000/4000.0)));
  2506  0EC0  300B               	movlw	11
  2507  0EC1  00F2               	movwf	??_main+2
  2508  0EC2  3026               	movlw	38
  2509  0EC3  00F1               	movwf	??_main+1
  2510  0EC4  3066               	movlw	102
  2511  0EC5  00F0               	movwf	??_main
  2512  0EC6                     u1087:	
  2513  0EC6  0BF0               	decfsz	??_main,f
  2514  0EC7  2EC6               	goto	u1087
  2515  0EC8  0BF1               	decfsz	??_main+1,f
  2516  0EC9  2EC6               	goto	u1087
  2517  0ECA  0BF2               	decfsz	??_main+2,f
  2518  0ECB  2EC6               	goto	u1087
  2519  0ECC  2ECD               	nop2
  2520                           
  2521                           ;my t4 c.c: 252: PORTB = 0b00111100;
  2522  0ECD  303C               	movlw	60
  2523  0ECE  1283               	bcf	3,5	;RP0=0, select bank0
  2524  0ECF  1303               	bcf	3,6	;RP1=0, select bank0
  2525  0ED0  0086               	movwf	6	;volatile
  2526                           
  2527                           ;my t4 c.c: 253: _delay((unsigned long)((1000)*(8000000/4000.0)));
  2528  0ED1  300B               	movlw	11
  2529  0ED2  00F2               	movwf	??_main+2
  2530  0ED3  3026               	movlw	38
  2531  0ED4  00F1               	movwf	??_main+1
  2532  0ED5  3066               	movlw	102
  2533  0ED6  00F0               	movwf	??_main
  2534  0ED7                     u1097:	
  2535  0ED7  0BF0               	decfsz	??_main,f
  2536  0ED8  2ED7               	goto	u1097
  2537  0ED9  0BF1               	decfsz	??_main+1,f
  2538  0EDA  2ED7               	goto	u1097
  2539  0EDB  0BF2               	decfsz	??_main+2,f
  2540  0EDC  2ED7               	goto	u1097
  2541  0EDD  2EDE               	nop2
  2542                           
  2543                           ;my t4 c.c: 254: PORTB = 0b01111110;
  2544  0EDE  307E               	movlw	126
  2545  0EDF  1283               	bcf	3,5	;RP0=0, select bank0
  2546  0EE0  1303               	bcf	3,6	;RP1=0, select bank0
  2547  0EE1  0086               	movwf	6	;volatile
  2548                           
  2549                           ;my t4 c.c: 255: _delay((unsigned long)((1000)*(8000000/4000.0)));
  2550  0EE2  300B               	movlw	11
  2551  0EE3  00F2               	movwf	??_main+2
  2552  0EE4  3026               	movlw	38
  2553  0EE5  00F1               	movwf	??_main+1
  2554  0EE6  3066               	movlw	102
  2555  0EE7  00F0               	movwf	??_main
  2556  0EE8                     u1107:	
  2557  0EE8  0BF0               	decfsz	??_main,f
  2558  0EE9  2EE8               	goto	u1107
  2559  0EEA  0BF1               	decfsz	??_main+1,f
  2560  0EEB  2EE8               	goto	u1107
  2561  0EEC  0BF2               	decfsz	??_main+2,f
  2562  0EED  2EE8               	goto	u1107
  2563  0EEE  2EEF               	nop2
  2564                           
  2565                           ;my t4 c.c: 256: PORTB = 0b11111111;
  2566  0EEF  30FF               	movlw	255
  2567  0EF0  1283               	bcf	3,5	;RP0=0, select bank0
  2568  0EF1  1303               	bcf	3,6	;RP1=0, select bank0
  2569  0EF2  0086               	movwf	6	;volatile
  2570                           
  2571                           ;my t4 c.c: 257: _delay((unsigned long)((1000)*(8000000/4000.0)));
  2572  0EF3  300B               	movlw	11
  2573  0EF4  00F2               	movwf	??_main+2
  2574  0EF5  3026               	movlw	38
  2575  0EF6  00F1               	movwf	??_main+1
  2576  0EF7  3066               	movlw	102
  2577  0EF8  00F0               	movwf	??_main
  2578  0EF9                     u1117:	
  2579  0EF9  0BF0               	decfsz	??_main,f
  2580  0EFA  2EF9               	goto	u1117
  2581  0EFB  0BF1               	decfsz	??_main+1,f
  2582  0EFC  2EF9               	goto	u1117
  2583  0EFD  0BF2               	decfsz	??_main+2,f
  2584  0EFE  2EF9               	goto	u1117
  2585  0EFF  2F00               	nop2
  2586                           
  2587                           ;my t4 c.c: 258: PORTB = 0b01111110;
  2588  0F00  307E               	movlw	126
  2589  0F01  1283               	bcf	3,5	;RP0=0, select bank0
  2590  0F02  1303               	bcf	3,6	;RP1=0, select bank0
  2591  0F03  0086               	movwf	6	;volatile
  2592                           
  2593                           ;my t4 c.c: 259: _delay((unsigned long)((1000)*(8000000/4000.0)));
  2594  0F04  300B               	movlw	11
  2595  0F05  00F2               	movwf	??_main+2
  2596  0F06  3026               	movlw	38
  2597  0F07  00F1               	movwf	??_main+1
  2598  0F08  3066               	movlw	102
  2599  0F09  00F0               	movwf	??_main
  2600  0F0A                     u1127:	
  2601  0F0A  0BF0               	decfsz	??_main,f
  2602  0F0B  2F0A               	goto	u1127
  2603  0F0C  0BF1               	decfsz	??_main+1,f
  2604  0F0D  2F0A               	goto	u1127
  2605  0F0E  0BF2               	decfsz	??_main+2,f
  2606  0F0F  2F0A               	goto	u1127
  2607  0F10  2F11               	nop2
  2608                           
  2609                           ;my t4 c.c: 260: PORTB = 0b10111101;
  2610  0F11  30BD               	movlw	189
  2611  0F12  1283               	bcf	3,5	;RP0=0, select bank0
  2612  0F13  1303               	bcf	3,6	;RP1=0, select bank0
  2613  0F14  0086               	movwf	6	;volatile
  2614                           
  2615                           ;my t4 c.c: 261: _delay((unsigned long)((1000)*(8000000/4000.0)));
  2616  0F15  300B               	movlw	11
  2617  0F16  00F2               	movwf	??_main+2
  2618  0F17  3026               	movlw	38
  2619  0F18  00F1               	movwf	??_main+1
  2620  0F19  3066               	movlw	102
  2621  0F1A  00F0               	movwf	??_main
  2622  0F1B                     u1137:	
  2623  0F1B  0BF0               	decfsz	??_main,f
  2624  0F1C  2F1B               	goto	u1137
  2625  0F1D  0BF1               	decfsz	??_main+1,f
  2626  0F1E  2F1B               	goto	u1137
  2627  0F1F  0BF2               	decfsz	??_main+2,f
  2628  0F20  2F1B               	goto	u1137
  2629  0F21  2F22               	nop2
  2630                           
  2631                           ;my t4 c.c: 262: PORTB = 0b11011011;
  2632  0F22  30DB               	movlw	219
  2633  0F23  1283               	bcf	3,5	;RP0=0, select bank0
  2634  0F24  1303               	bcf	3,6	;RP1=0, select bank0
  2635  0F25  0086               	movwf	6	;volatile
  2636                           
  2637                           ;my t4 c.c: 263: _delay((unsigned long)((1000)*(8000000/4000.0)));
  2638  0F26  300B               	movlw	11
  2639  0F27  00F2               	movwf	??_main+2
  2640  0F28  3026               	movlw	38
  2641  0F29  00F1               	movwf	??_main+1
  2642  0F2A  3066               	movlw	102
  2643  0F2B  00F0               	movwf	??_main
  2644  0F2C                     u1147:	
  2645  0F2C  0BF0               	decfsz	??_main,f
  2646  0F2D  2F2C               	goto	u1147
  2647  0F2E  0BF1               	decfsz	??_main+1,f
  2648  0F2F  2F2C               	goto	u1147
  2649  0F30  0BF2               	decfsz	??_main+2,f
  2650  0F31  2F2C               	goto	u1147
  2651  0F32  2F33               	nop2
  2652                           
  2653                           ;my t4 c.c: 264: PORTB = 0b11100111;
  2654  0F33  30E7               	movlw	231
  2655  0F34  1283               	bcf	3,5	;RP0=0, select bank0
  2656  0F35  1303               	bcf	3,6	;RP1=0, select bank0
  2657  0F36  0086               	movwf	6	;volatile
  2658                           
  2659                           ;my t4 c.c: 265: _delay((unsigned long)((1000)*(8000000/4000.0)));
  2660  0F37  300B               	movlw	11
  2661  0F38  00F2               	movwf	??_main+2
  2662  0F39  3026               	movlw	38
  2663  0F3A  00F1               	movwf	??_main+1
  2664  0F3B  3066               	movlw	102
  2665  0F3C  00F0               	movwf	??_main
  2666  0F3D                     u1157:	
  2667  0F3D  0BF0               	decfsz	??_main,f
  2668  0F3E  2F3D               	goto	u1157
  2669  0F3F  0BF1               	decfsz	??_main+1,f
  2670  0F40  2F3D               	goto	u1157
  2671  0F41  0BF2               	decfsz	??_main+2,f
  2672  0F42  2F3D               	goto	u1157
  2673  0F43  2F44               	nop2
  2674                           
  2675                           ;my t4 c.c: 266: PORTB = 0b11111111;
  2676  0F44  30FF               	movlw	255
  2677  0F45  1283               	bcf	3,5	;RP0=0, select bank0
  2678  0F46  1303               	bcf	3,6	;RP1=0, select bank0
  2679  0F47  0086               	movwf	6	;volatile
  2680                           
  2681                           ;my t4 c.c: 267: _delay((unsigned long)((1000)*(8000000/4000.0)));
  2682  0F48  300B               	movlw	11
  2683  0F49  00F2               	movwf	??_main+2
  2684  0F4A  3026               	movlw	38
  2685  0F4B  00F1               	movwf	??_main+1
  2686  0F4C  3066               	movlw	102
  2687  0F4D  00F0               	movwf	??_main
  2688  0F4E                     u1167:	
  2689  0F4E  0BF0               	decfsz	??_main,f
  2690  0F4F  2F4E               	goto	u1167
  2691  0F50  0BF1               	decfsz	??_main+1,f
  2692  0F51  2F4E               	goto	u1167
  2693  0F52  0BF2               	decfsz	??_main+2,f
  2694  0F53  2F4E               	goto	u1167
  2695  0F54  2F55               	nop2
  2696                           
  2697                           ;my t4 c.c: 268: PORTB = 0b10101010;
  2698  0F55  30AA               	movlw	170
  2699  0F56  1283               	bcf	3,5	;RP0=0, select bank0
  2700  0F57  1303               	bcf	3,6	;RP1=0, select bank0
  2701  0F58  0086               	movwf	6	;volatile
  2702                           
  2703                           ;my t4 c.c: 269: _delay((unsigned long)((1000)*(8000000/4000.0)));
  2704  0F59  300B               	movlw	11
  2705  0F5A  00F2               	movwf	??_main+2
  2706  0F5B  3026               	movlw	38
  2707  0F5C  00F1               	movwf	??_main+1
  2708  0F5D  3066               	movlw	102
  2709  0F5E  00F0               	movwf	??_main
  2710  0F5F                     u1177:	
  2711  0F5F  0BF0               	decfsz	??_main,f
  2712  0F60  2F5F               	goto	u1177
  2713  0F61  0BF1               	decfsz	??_main+1,f
  2714  0F62  2F5F               	goto	u1177
  2715  0F63  0BF2               	decfsz	??_main+2,f
  2716  0F64  2F5F               	goto	u1177
  2717  0F65  2F66               	nop2
  2718                           
  2719                           ;my t4 c.c: 270: PORTB = 0b01010101;
  2720  0F66  3055               	movlw	85
  2721  0F67  1283               	bcf	3,5	;RP0=0, select bank0
  2722  0F68  1303               	bcf	3,6	;RP1=0, select bank0
  2723  0F69  0086               	movwf	6	;volatile
  2724                           
  2725                           ;my t4 c.c: 271: _delay((unsigned long)((1000)*(8000000/4000.0)));
  2726  0F6A  300B               	movlw	11
  2727  0F6B  00F2               	movwf	??_main+2
  2728  0F6C  3026               	movlw	38
  2729  0F6D  00F1               	movwf	??_main+1
  2730  0F6E  3066               	movlw	102
  2731  0F6F  00F0               	movwf	??_main
  2732  0F70                     u1187:	
  2733  0F70  0BF0               	decfsz	??_main,f
  2734  0F71  2F70               	goto	u1187
  2735  0F72  0BF1               	decfsz	??_main+1,f
  2736  0F73  2F70               	goto	u1187
  2737  0F74  0BF2               	decfsz	??_main+2,f
  2738  0F75  2F70               	goto	u1187
  2739  0F76  2F77               	nop2
  2740                           
  2741                           ;my t4 c.c: 272: PORTB = 0b10101010;
  2742  0F77  30AA               	movlw	170
  2743  0F78  1283               	bcf	3,5	;RP0=0, select bank0
  2744  0F79  1303               	bcf	3,6	;RP1=0, select bank0
  2745  0F7A  0086               	movwf	6	;volatile
  2746                           
  2747                           ;my t4 c.c: 273: _delay((unsigned long)((1000)*(8000000/4000.0)));
  2748  0F7B  300B               	movlw	11
  2749  0F7C  00F2               	movwf	??_main+2
  2750  0F7D  3026               	movlw	38
  2751  0F7E  00F1               	movwf	??_main+1
  2752  0F7F  3066               	movlw	102
  2753  0F80  00F0               	movwf	??_main
  2754  0F81                     u1197:	
  2755  0F81  0BF0               	decfsz	??_main,f
  2756  0F82  2F81               	goto	u1197
  2757  0F83  0BF1               	decfsz	??_main+1,f
  2758  0F84  2F81               	goto	u1197
  2759  0F85  0BF2               	decfsz	??_main+2,f
  2760  0F86  2F81               	goto	u1197
  2761  0F87  2F88               	nop2
  2762                           
  2763                           ;my t4 c.c: 274: PORTB = 0b01010101;
  2764  0F88  3055               	movlw	85
  2765  0F89  1283               	bcf	3,5	;RP0=0, select bank0
  2766  0F8A  1303               	bcf	3,6	;RP1=0, select bank0
  2767  0F8B  0086               	movwf	6	;volatile
  2768                           
  2769                           ;my t4 c.c: 275: _delay((unsigned long)((1000)*(8000000/4000.0)));
  2770  0F8C  300B               	movlw	11
  2771  0F8D  00F2               	movwf	??_main+2
  2772  0F8E  3026               	movlw	38
  2773  0F8F  00F1               	movwf	??_main+1
  2774  0F90  3066               	movlw	102
  2775  0F91  00F0               	movwf	??_main
  2776  0F92                     u1207:	
  2777  0F92  0BF0               	decfsz	??_main,f
  2778  0F93  2F92               	goto	u1207
  2779  0F94  0BF1               	decfsz	??_main+1,f
  2780  0F95  2F92               	goto	u1207
  2781  0F96  0BF2               	decfsz	??_main+2,f
  2782  0F97  2F92               	goto	u1207
  2783  0F98  2F99               	nop2
  2784                           
  2785                           ;my t4 c.c: 276: PORTB = 0b10101010;
  2786  0F99  30AA               	movlw	170
  2787  0F9A  1283               	bcf	3,5	;RP0=0, select bank0
  2788  0F9B  1303               	bcf	3,6	;RP1=0, select bank0
  2789  0F9C  0086               	movwf	6	;volatile
  2790                           
  2791                           ;my t4 c.c: 277: _delay((unsigned long)((1000)*(8000000/4000.0)));
  2792  0F9D  300B               	movlw	11
  2793  0F9E  00F2               	movwf	??_main+2
  2794  0F9F  3026               	movlw	38
  2795  0FA0  00F1               	movwf	??_main+1
  2796  0FA1  3066               	movlw	102
  2797  0FA2  00F0               	movwf	??_main
  2798  0FA3                     u1217:	
  2799  0FA3  0BF0               	decfsz	??_main,f
  2800  0FA4  2FA3               	goto	u1217
  2801  0FA5  0BF1               	decfsz	??_main+1,f
  2802  0FA6  2FA3               	goto	u1217
  2803  0FA7  0BF2               	decfsz	??_main+2,f
  2804  0FA8  2FA3               	goto	u1217
  2805  0FA9  2FAA               	nop2
  2806                           
  2807                           ;my t4 c.c: 278: PORTB = 0b01010101;
  2808  0FAA  3055               	movlw	85
  2809  0FAB  1283               	bcf	3,5	;RP0=0, select bank0
  2810  0FAC  1303               	bcf	3,6	;RP1=0, select bank0
  2811  0FAD  0086               	movwf	6	;volatile
  2812                           
  2813                           ;my t4 c.c: 279: _delay((unsigned long)((1000)*(8000000/4000.0)));
  2814  0FAE  300B               	movlw	11
  2815  0FAF  00F2               	movwf	??_main+2
  2816  0FB0  3026               	movlw	38
  2817  0FB1  00F1               	movwf	??_main+1
  2818  0FB2  3066               	movlw	102
  2819  0FB3  00F0               	movwf	??_main
  2820  0FB4                     u1227:	
  2821  0FB4  0BF0               	decfsz	??_main,f
  2822  0FB5  2FB4               	goto	u1227
  2823  0FB6  0BF1               	decfsz	??_main+1,f
  2824  0FB7  2FB4               	goto	u1227
  2825  0FB8  0BF2               	decfsz	??_main+2,f
  2826  0FB9  2FB4               	goto	u1227
  2827  0FBA  2FBB               	nop2
  2828                           
  2829                           ;my t4 c.c: 280: PORTB = 0b11111111;
  2830  0FBB  30FF               	movlw	255
  2831  0FBC  1283               	bcf	3,5	;RP0=0, select bank0
  2832  0FBD  1303               	bcf	3,6	;RP1=0, select bank0
  2833  0FBE  0086               	movwf	6	;volatile
  2834                           
  2835                           ;my t4 c.c: 281: _delay((unsigned long)((1000)*(8000000/4000.0)));
  2836  0FBF  300B               	movlw	11
  2837  0FC0  00F2               	movwf	??_main+2
  2838  0FC1  3026               	movlw	38
  2839  0FC2  00F1               	movwf	??_main+1
  2840  0FC3  3066               	movlw	102
  2841  0FC4  00F0               	movwf	??_main
  2842  0FC5                     u1237:	
  2843  0FC5  0BF0               	decfsz	??_main,f
  2844  0FC6  2FC5               	goto	u1237
  2845  0FC7  0BF1               	decfsz	??_main+1,f
  2846  0FC8  2FC5               	goto	u1237
  2847  0FC9  0BF2               	decfsz	??_main+2,f
  2848  0FCA  2FC5               	goto	u1237
  2849  0FCB  2FCC               	nop2
  2850                           
  2851                           ;my t4 c.c: 282: PORTB = 0b00000000;
  2852  0FCC  1283               	bcf	3,5	;RP0=0, select bank0
  2853  0FCD  1303               	bcf	3,6	;RP1=0, select bank0
  2854  0FCE  0186               	clrf	6	;volatile
  2855                           
  2856                           ;my t4 c.c: 283: _delay((unsigned long)((1000)*(8000000/4000.0)));
  2857  0FCF  300B               	movlw	11
  2858  0FD0  00F2               	movwf	??_main+2
  2859  0FD1  3026               	movlw	38
  2860  0FD2  00F1               	movwf	??_main+1
  2861  0FD3  3066               	movlw	102
  2862  0FD4  00F0               	movwf	??_main
  2863  0FD5                     u1247:	
  2864  0FD5  0BF0               	decfsz	??_main,f
  2865  0FD6  2FD5               	goto	u1247
  2866  0FD7  0BF1               	decfsz	??_main+1,f
  2867  0FD8  2FD5               	goto	u1247
  2868  0FD9  0BF2               	decfsz	??_main+2,f
  2869  0FDA  2FD5               	goto	u1247
  2870  0FDB  2FDC               	nop2
  2871                           
  2872                           ;my t4 c.c: 284: PORTB = 0b11111111;
  2873  0FDC  30FF               	movlw	255
  2874  0FDD  1283               	bcf	3,5	;RP0=0, select bank0
  2875  0FDE  1303               	bcf	3,6	;RP1=0, select bank0
  2876  0FDF  0086               	movwf	6	;volatile
  2877                           
  2878                           ;my t4 c.c: 285: _delay((unsigned long)((1000)*(8000000/4000.0)));
  2879  0FE0  300B               	movlw	11
  2880  0FE1  00F2               	movwf	??_main+2
  2881  0FE2  3026               	movlw	38
  2882  0FE3  00F1               	movwf	??_main+1
  2883  0FE4  3066               	movlw	102
  2884  0FE5  00F0               	movwf	??_main
  2885  0FE6                     u1257:	
  2886  0FE6  0BF0               	decfsz	??_main,f
  2887  0FE7  2FE6               	goto	u1257
  2888  0FE8  0BF1               	decfsz	??_main+1,f
  2889  0FE9  2FE6               	goto	u1257
  2890  0FEA  0BF2               	decfsz	??_main+2,f
  2891  0FEB  2FE6               	goto	u1257
  2892  0FEC  2FED               	nop2
  2893                           
  2894                           ;my t4 c.c: 286: PORTB = 0b00000000;
  2895  0FED  1283               	bcf	3,5	;RP0=0, select bank0
  2896  0FEE  1303               	bcf	3,6	;RP1=0, select bank0
  2897  0FEF  0186               	clrf	6	;volatile
  2898                           
  2899                           ;my t4 c.c: 287: _delay((unsigned long)((1000)*(8000000/4000.0)));
  2900  0FF0  300B               	movlw	11
  2901  0FF1  00F2               	movwf	??_main+2
  2902  0FF2  3026               	movlw	38
  2903  0FF3  00F1               	movwf	??_main+1
  2904  0FF4  3066               	movlw	102
  2905  0FF5  00F0               	movwf	??_main
  2906  0FF6                     u1267:	
  2907  0FF6  0BF0               	decfsz	??_main,f
  2908  0FF7  2FF6               	goto	u1267
  2909  0FF8  0BF1               	decfsz	??_main+1,f
  2910  0FF9  2FF6               	goto	u1267
  2911  0FFA  0BF2               	decfsz	??_main+2,f
  2912  0FFB  2FF6               	goto	u1267
  2913  0FFC  2FFD               	nop2
  2914  0FFD  120A  118A  28FB   	goto	l1655
  2915  1000                     __end_of_main:	
  2916                           
  2917 ;; =============== function _main ends ============
  2918  007E                     btemp	set	126	;btemp
  2919  007E                     wtemp0	set	126


HI-TECH Software PICC Macro Assembler V9.83 build 10920 
Symbol Table                                                                                   Sat Mar 12 18:21:04 2016

                  u17 0105                    u27 0115                    u37 0126                    u47 0137  
                  u57 0148                    u67 0159                    u77 016A                    u87 017B  
                  u97 018C                   u107 019D                   u117 01AE                   u207 0246  
                 u127 01BF                   u217 0257                   u137 01D0                   u307 02F0  
                 u227 0268                   u147 01E1                   u317 0301                   u237 0279  
                 u157 01F2                   u407 039A                   u327 0312                   u247 028A  
                 u167 0203                   u417 03AB                   u337 0323                   u257 029B  
                 u177 0214                   u507 0443                   u427 03BC                   u347 0334  
                 u267 02AC                   u187 0224                   u517 0453                   u437 03CC  
                 u357 0345                   u277 02BD                   u197 0235                   u607 04EB  
                 u527 0464                   u447 03DD                   u367 0356                   u287 02CE  
                 u617 04FC                   u537 0475                   u457 03EE                   u377 0367  
                 u297 02DF                   u707 0594                   u627 050D                   u547 0486  
                 u467 03FF                   u387 0378                   u717 05A5                   u637 051E  
                 u557 0497                   u477 0410                   u397 0389                   u807 063D  
                 u727 05B6                   u647 052F                   u567 04A8                   u487 0421  
                 u817 064E                   u737 05C7                   u657 0540                   u577 04B9  
                 u497 0432                   u907 06E7                   u827 065F                   u747 05D8  
                 u667 0551                   u587 04CA                   u917 06F8                   u837 0670  
                 u757 05E8                   u677 0561                   u597 04DA                   u927 0709  
                 u847 0681                   u767 05F9                   u687 0572                   u937 071A  
                 u857 0692                   u777 060A                   u697 0583                   u947 072B  
                 u867 06A3                   u787 061B                   u957 073C                   u877 06B4  
                 u797 062C                   u967 074D                   u887 06C5                   u977 075E  
                 u897 06D6                   u987 076E                   u997 077F                  l1701 0000  
                l1711 0000                  l1703 0000                  l1801 0000                  l1721 0000  
                l1713 0000                  l1705 0000                  l1811 0000                  l1803 0000  
                l1731 0000                  l1723 0000                  l1715 0000                  l1707 0000  
                l1901 0000                  l1821 0000                  l1813 0000                  l1805 0000  
                l1741 0000                  l1733 0000                  l1725 0000                  l1717 0000  
                l1709 0000                  l1661 0000                  l1653 0000                  l1911 0000  
                l1903 0000                  l1831 0000                  l1823 0000                  l1815 0000  
                l1807 0000                  l1751 0000                  l1743 0000                  l1735 0000  
                l1727 0000                  l1719 0000                  l1671 0000                  l1663 0000  
                l1655 00FB                  l1921 0000                  l1913 0000                  l1905 0000  
                l1841 0000                  l1833 0000                  l1825 0000                  l1817 0000  
                l1809 0000                  l1761 0000                  l1753 0000                  l1745 0000  
                l1737 0000                  l1729 0000                  l1681 0000                  l1673 0000  
                l1665 0000                  l1657 0000                  l1931 0000                  l1923 0000  
                l1915 0000                  l1907 0000                  l1851 0000                  l1843 0000  
                l1835 0000                  l1827 0000                  l1819 0000                  l1771 0000  
                l1763 0000                  l1755 0000                  l1747 0000                  l1739 0000  
                l1691 0000                  l1683 0000                  l1675 0000                  l1667 0000  
                l1659 0000                  l1941 0000                  l1933 0000                  l1925 0000  
                l1917 0000                  l1909 0000                  l1861 0000                  l1853 0000  
                l1845 0000                  l1837 0000                  l1829 0000                  l1781 0000  
                l1773 0000                  l1765 0000                  l1757 0000                  l1749 0000  
                l1693 0000                  l1685 0000                  l1677 0000                  l1669 0000  
                l1951 0000                  l1943 0000                  l1935 0000                  l1927 0000  
                l1919 0000                  l1871 0000                  l1863 0000                  l1855 0000  
                l1847 0000                  l1839 0000                  l1791 0000                  l1783 0000  
                l1775 0000                  l1767 0000                  l1759 0000                  l1695 0000  
                l1687 0000                  l1679 0000                  l1961 0000                  l1953 0000  
                l1945 0000                  l1937 0000                  l1929 0000                  l1881 0000  
                l1873 0000                  l1865 0000                  l1857 0000                  l1849 0000  
                l1793 0000                  l1785 0000                  l1777 0000                  l1769 0000  
                l1697 0000                  l1689 0000                  l1971 0000                  l1963 0000  
                l1955 0000                  l1947 0000                  l1939 0000                  l1891 0000  
                l1883 0000                  l1875 0000                  l1867 0000                  l1859 0000  
                l1795 0000                  l1787 0000                  l1779 0000                  l1699 0000  
                l1981 0000                  l1973 0000                  l1965 0000                  l1957 0000  
                l1949 0000                  l1893 0000                  l1885 0000                  l1877 0000  
                l1869 0000                  l1797 0000                  l1789 0000                  l1983 0000  
                l1975 0000                  l1967 0000                  l1959 0000                  l1895 0000  
                l1887 0000                  l1879 0000                  l1799 0000                  l1985 0000  
                l1977 0000                  l1969 0000                  l1897 0000                  l1889 0000  
                l1979 0000                  l1899 0000                  u1007 0790                  u1017 07A1  
                u1107 0EE8                  u1027 07B2                  u1117 0EF9                  u1037 07C3  
                u1207 0F92                  u1127 0F0A                  u1047 07D4                  u1217 0FA3  
                u1137 0F1B                  u1057 07E5                  u1227 0FB4                  u1147 0F2C  
                u1067 07F6                  u1237 0FC5                  u1157 0F3D                  u1077 0EB5  
                u1247 0FD5                  u1167 0F4E                  u1087 0EC6                  u1257 0FE6  
                u1177 0F5F                  u1097 0ED7                  u1267 0FF6                  u1187 0F70  
                u1197 0F81                  _main 00F8                  btemp 007E                  start 0000  
               ?_main 0070                 _PORTB 0006                 _TRISB 0086                 status 0003  
               wtemp0 007E          __end_of_main 1000                ??_main 0070        __pcstackCOMMON 0070  
          __pmaintext 00F8  end_of_initialization 00F4   start_initialization 00F4         __size_of_main 0F08  
